
exercise15.elf:     file format elf32-littlenios2
exercise15.elf
architecture: nios2:r1, flags 0x00000112:
EXEC_P, HAS_SYMS, D_PAGED
start address 0x010001c0

Program Header:
    LOAD off    0x00001000 vaddr 0x01000000 paddr 0x01000000 align 2**12
         filesz 0x00000020 memsz 0x00000020 flags r-x
    LOAD off    0x00001020 vaddr 0x01000020 paddr 0x01000020 align 2**12
         filesz 0x00019988 memsz 0x00019988 flags r-x
    LOAD off    0x0001a9a8 vaddr 0x010199a8 paddr 0x0101b51c align 2**12
         filesz 0x00001b74 memsz 0x00001b74 flags rw-
    LOAD off    0x0001d090 vaddr 0x0101d090 paddr 0x0101d090 align 2**12
         filesz 0x00000000 memsz 0x000004b4 flags rw-

Sections:
Idx Name          Size      VMA       LMA       File off  Algn
  0 .entry        00000020  01000000  01000000  00001000  2**5
                  CONTENTS, ALLOC, LOAD, READONLY, CODE
  1 .exceptions   000001a0  01000020  01000020  00001020  2**2
                  CONTENTS, ALLOC, LOAD, READONLY, CODE
  2 .text         0001905c  010001c0  010001c0  000011c0  2**2
                  CONTENTS, ALLOC, LOAD, READONLY, CODE
  3 .rodata       0000078c  0101921c  0101921c  0001a21c  2**2
                  CONTENTS, ALLOC, LOAD, READONLY, DATA
  4 .rwdata       00001b74  010199a8  0101b51c  0001a9a8  2**2
                  CONTENTS, ALLOC, LOAD, DATA, SMALL_DATA
  5 .bss          000004b4  0101d090  0101d090  0001d090  2**2
                  ALLOC, SMALL_DATA
  6 .onchip_memory2_0 00000000  00000000  00000000  0001c51c  2**0
                  CONTENTS
  7 .new_sdram_controller_0 00000000  0101d544  0101d544  0001c51c  2**0
                  CONTENTS
  8 .comment      00000023  00000000  00000000  0001c51c  2**0
                  CONTENTS, READONLY
  9 .debug_aranges 00001118  00000000  00000000  0001c540  2**3
                  CONTENTS, READONLY, DEBUGGING
 10 .debug_info   0002f1bc  00000000  00000000  0001d658  2**0
                  CONTENTS, READONLY, DEBUGGING
 11 .debug_abbrev 0000bf3b  00000000  00000000  0004c814  2**0
                  CONTENTS, READONLY, DEBUGGING
 12 .debug_line   0000f99f  00000000  00000000  0005874f  2**0
                  CONTENTS, READONLY, DEBUGGING
 13 .debug_frame  00002d88  00000000  00000000  000680f0  2**2
                  CONTENTS, READONLY, DEBUGGING
 14 .debug_str    000043e8  00000000  00000000  0006ae78  2**0
                  CONTENTS, READONLY, DEBUGGING
 15 .debug_loc    00023554  00000000  00000000  0006f260  2**0
                  CONTENTS, READONLY, DEBUGGING
 16 .debug_alt_sim_info 00000060  00000000  00000000  000927b4  2**2
                  CONTENTS, READONLY, DEBUGGING
 17 .debug_ranges 00001ba0  00000000  00000000  00092818  2**3
                  CONTENTS, READONLY, DEBUGGING
 18 .thread_model 00000003  00000000  00000000  00098894  2**0
                  CONTENTS, READONLY
 19 .cpu          0000000c  00000000  00000000  00098897  2**0
                  CONTENTS, READONLY
 20 .qsys         00000001  00000000  00000000  000988a3  2**0
                  CONTENTS, READONLY
 21 .simulation_enabled 00000001  00000000  00000000  000988a4  2**0
                  CONTENTS, READONLY
 22 .stderr_dev   0000000b  00000000  00000000  000988a5  2**0
                  CONTENTS, READONLY
 23 .stdin_dev    0000000b  00000000  00000000  000988b0  2**0
                  CONTENTS, READONLY
 24 .stdout_dev   0000000b  00000000  00000000  000988bb  2**0
                  CONTENTS, READONLY
 25 .sopc_system_name 0000000b  00000000  00000000  000988c6  2**0
                  CONTENTS, READONLY
 26 .quartus_project_dir 00000038  00000000  00000000  000988d1  2**0
                  CONTENTS, READONLY
 27 .jdi          00005d84  00000000  00000000  00098909  2**0
                  CONTENTS, READONLY
 28 .sopcinfo     00085ed0  00000000  00000000  0009e68d  2**0
                  CONTENTS, READONLY
SYMBOL TABLE:
01000000 l    d  .entry	00000000 .entry
01000020 l    d  .exceptions	00000000 .exceptions
010001c0 l    d  .text	00000000 .text
0101921c l    d  .rodata	00000000 .rodata
010199a8 l    d  .rwdata	00000000 .rwdata
0101d090 l    d  .bss	00000000 .bss
00000000 l    d  .onchip_memory2_0	00000000 .onchip_memory2_0
0101d544 l    d  .new_sdram_controller_0	00000000 .new_sdram_controller_0
00000000 l    d  .comment	00000000 .comment
00000000 l    d  .debug_aranges	00000000 .debug_aranges
00000000 l    d  .debug_info	00000000 .debug_info
00000000 l    d  .debug_abbrev	00000000 .debug_abbrev
00000000 l    d  .debug_line	00000000 .debug_line
00000000 l    d  .debug_frame	00000000 .debug_frame
00000000 l    d  .debug_str	00000000 .debug_str
00000000 l    d  .debug_loc	00000000 .debug_loc
00000000 l    d  .debug_alt_sim_info	00000000 .debug_alt_sim_info
00000000 l    d  .debug_ranges	00000000 .debug_ranges
00000000 l    df *ABS*	00000000 ../exercise15_bsp//obj/HAL/src/crt0.o
01000208 l       .text	00000000 alt_after_alt_main
00000000 l    df *ABS*	00000000 alt_exception_entry.o
01000094 l       .exceptions	00000000 alt_exception_unknown
00000000 l    df *ABS*	00000000 alt_irq_handler.c
00000000 l    df *ABS*	00000000 hello_world.c
0101d164 l     O .bss	00000064 buff.3945
0101d1c8 l     O .bss	00000064 buff.3951
00000000 l    df *ABS*	00000000 w_fmod.c
00000000 l    df *ABS*	00000000 e_fmod.c
01019358 l     O .rodata	00000010 Zero
00000000 l    df *ABS*	00000000 s_fpclassify.c
00000000 l    df *ABS*	00000000 s_lib_ver.c
00000000 l    df *ABS*	00000000 s_matherr.c
00000000 l    df *ABS*	00000000 addsf3.c
00000000 l    df *ABS*	00000000 divsf3.c
00000000 l    df *ABS*	00000000 mulsf3.c
00000000 l    df *ABS*	00000000 subsf3.c
00000000 l    df *ABS*	00000000 fixsfsi.c
00000000 l    df *ABS*	00000000 floatsisf.c
00000000 l    df *ABS*	00000000 divdf3.c
00000000 l    df *ABS*	00000000 eqdf2.c
00000000 l    df *ABS*	00000000 muldf3.c
00000000 l    df *ABS*	00000000 fixdfsi.c
00000000 l    df *ABS*	00000000 extendsfdf2.c
00000000 l    df *ABS*	00000000 truncdfsf2.c
00000000 l    df *ABS*	00000000 libgcc2.c
00000000 l    df *ABS*	00000000 lib2-divmod.c
01004ad8 l     F .text	0000006c udivmodsi4
00000000 l    df *ABS*	00000000 libgcc2.c
00000000 l    df *ABS*	00000000 atof.c
00000000 l    df *ABS*	00000000 atoi.c
00000000 l    df *ABS*	00000000 atol.c
00000000 l    df *ABS*	00000000 ctype_.c
01019569 l     O .rodata	00000180 _ctype_b
00000000 l    df *ABS*	00000000 errno.c
00000000 l    df *ABS*	00000000 impure.c
010199a8 l     O .rwdata	00000424 impure_data
00000000 l    df *ABS*	00000000 printf.c
00000000 l    df *ABS*	00000000 puts.c
00000000 l    df *ABS*	00000000 sprintf.c
00000000 l    df *ABS*	00000000 strchr.c
00000000 l    df *ABS*	00000000 strlen.c
00000000 l    df *ABS*	00000000 strncpy.c
00000000 l    df *ABS*	00000000 strstr.c
0100512c l     F .text	000000fc critical_factorization
01005228 l     F .text	00000374 two_way_long_needle
00000000 l    df *ABS*	00000000 strtod.c
01019de0 l     O .rwdata	00000014 fpi.2638
01019704 l     O .rodata	00000028 tinytens
01019dcc l     O .rwdata	00000014 fpinan.2674
00000000 l    df *ABS*	00000000 strtol.c
00000000 l    df *ABS*	00000000 vfprintf.c
0101976e l     O .rodata	00000010 zeroes.4166
0101977e l     O .rodata	00000010 blanks.4165
00000000 l    df *ABS*	00000000 vfprintf.c
0101978e l     O .rodata	00000010 zeroes.4181
0101979e l     O .rodata	00000010 blanks.4180
00000000 l    df *ABS*	00000000 wsetup.c
00000000 l    df *ABS*	00000000 dtoa.c
0100b2d8 l     F .text	00000200 quorem
00000000 l    df *ABS*	00000000 fflush.c
00000000 l    df *ABS*	00000000 findfp.c
0100ce58 l     F .text	00000008 __fp_lock
0100ce60 l     F .text	00000008 __fp_unlock
0100ce74 l     F .text	000001a0 __sinit.part.1
00000000 l    df *ABS*	00000000 mallocr.c
00000000 l    df *ABS*	00000000 fvwrite.c
00000000 l    df *ABS*	00000000 fwalk.c
00000000 l    df *ABS*	00000000 gdtoa-gethex.c
0100dc20 l     F .text	00000100 rshift
00000000 l    df *ABS*	00000000 gdtoa-hexnan.c
00000000 l    df *ABS*	00000000 locale.c
01019e14 l     O .rwdata	00000020 lc_ctype_charset
01019df4 l     O .rwdata	00000020 lc_message_charset
01019e34 l     O .rwdata	00000038 lconv
00000000 l    df *ABS*	00000000 makebuf.c
00000000 l    df *ABS*	00000000 mallocr.c
00000000 l    df *ABS*	00000000 memchr.c
00000000 l    df *ABS*	00000000 memcmp.c
00000000 l    df *ABS*	00000000 memcpy.c
00000000 l    df *ABS*	00000000 memmove.c
00000000 l    df *ABS*	00000000 memset.c
00000000 l    df *ABS*	00000000 mprec.c
010197e8 l     O .rodata	0000000c p05.2678
00000000 l    df *ABS*	00000000 mallocr.c
00000000 l    df *ABS*	00000000 sbrkr.c
00000000 l    df *ABS*	00000000 stdio.c
00000000 l    df *ABS*	00000000 strcmp.c
00000000 l    df *ABS*	00000000 strncmp.c
00000000 l    df *ABS*	00000000 vfprintf.c
0101990c l     O .rodata	00000010 zeroes.4110
0101991c l     O .rodata	00000010 blanks.4109
00000000 l    df *ABS*	00000000 vfprintf.c
01012200 l     F .text	000000fc __sprint_r.part.0
0101993c l     O .rodata	00000010 blanks.4125
0101992c l     O .rodata	00000010 zeroes.4126
00000000 l    df *ABS*	00000000 writer.c
00000000 l    df *ABS*	00000000 closer.c
00000000 l    df *ABS*	00000000 mallocr.c
00000000 l    df *ABS*	00000000 fclose.c
00000000 l    df *ABS*	00000000 fputwc.c
00000000 l    df *ABS*	00000000 fstatr.c
00000000 l    df *ABS*	00000000 int_errno.c
00000000 l    df *ABS*	00000000 isattyr.c
00000000 l    df *ABS*	00000000 lseekr.c
00000000 l    df *ABS*	00000000 readr.c
00000000 l    df *ABS*	00000000 wbuf.c
00000000 l    df *ABS*	00000000 wcrtomb.c
00000000 l    df *ABS*	00000000 wctomb_r.c
00000000 l    df *ABS*	00000000 libgcc2.c
00000000 l    df *ABS*	00000000 libgcc2.c
00000000 l    df *ABS*	00000000 libgcc2.c
00000000 l    df *ABS*	00000000 eqsf2.c
00000000 l    df *ABS*	00000000 gesf2.c
00000000 l    df *ABS*	00000000 lesf2.c
00000000 l    df *ABS*	00000000 adddf3.c
00000000 l    df *ABS*	00000000 gedf2.c
00000000 l    df *ABS*	00000000 ledf2.c
00000000 l    df *ABS*	00000000 subdf3.c
00000000 l    df *ABS*	00000000 floatsidf.c
00000000 l    df *ABS*	00000000 floatunsidf.c
00000000 l    df *ABS*	00000000 alt_close.c
01016214 l     F .text	00000050 alt_get_errno
00000000 l    df *ABS*	00000000 alt_dev.c
01016334 l     F .text	0000002c alt_dev_null_write
00000000 l    df *ABS*	00000000 alt_errno.c
00000000 l    df *ABS*	00000000 alt_fstat.c
01016360 l     F .text	00000050 alt_get_errno
00000000 l    df *ABS*	00000000 alt_isatty.c
01016460 l     F .text	00000050 alt_get_errno
00000000 l    df *ABS*	00000000 alt_load.c
01016554 l     F .text	00000064 alt_load_section
00000000 l    df *ABS*	00000000 alt_lseek.c
01016638 l     F .text	00000050 alt_get_errno
00000000 l    df *ABS*	00000000 alt_main.c
00000000 l    df *ABS*	00000000 alt_malloc_lock.c
00000000 l    df *ABS*	00000000 alt_read.c
01016814 l     F .text	00000050 alt_get_errno
00000000 l    df *ABS*	00000000 alt_release_fd.c
00000000 l    df *ABS*	00000000 alt_sbrk.c
0101b50c l     O .rwdata	00000004 heap_end
00000000 l    df *ABS*	00000000 alt_usleep.c
00000000 l    df *ABS*	00000000 alt_write.c
01016aa0 l     F .text	00000050 alt_get_errno
00000000 l    df *ABS*	00000000 alt_sys_init.c
01016be8 l     F .text	00000038 alt_dev_reg
0101a41c l     O .rwdata	00001060 jtag_uart_0
0101b47c l     O .rwdata	0000002c character_lcd_0
0101b4a8 l     O .rwdata	0000002c rs232_0
00000000 l    df *ABS*	00000000 altera_avalon_jtag_uart_fd.c
00000000 l    df *ABS*	00000000 altera_avalon_jtag_uart_init.c
01016eec l     F .text	00000208 altera_avalon_jtag_uart_irq
010170f4 l     F .text	000000a8 altera_avalon_jtag_uart_timeout
00000000 l    df *ABS*	00000000 altera_avalon_jtag_uart_ioctl.c
00000000 l    df *ABS*	00000000 altera_avalon_jtag_uart_read.c
00000000 l    df *ABS*	00000000 altera_avalon_jtag_uart_write.c
00000000 l    df *ABS*	00000000 altera_avalon_timer_sc.c
01017714 l     F .text	00000078 alt_avalon_timer_sc_irq
00000000 l    df *ABS*	00000000 altera_up_avalon_character_lcd.c
00000000 l    df *ABS*	00000000 altera_up_avalon_rs232.c
00000000 l    df *ABS*	00000000 alt_alarm_start.c
00000000 l    df *ABS*	00000000 alt_busy_sleep.c
00000000 l    df *ABS*	00000000 alt_dcache_flush_all.c
00000000 l    df *ABS*	00000000 alt_dev_llist_insert.c
0101831c l     F .text	00000050 alt_get_errno
00000000 l    df *ABS*	00000000 alt_do_ctors.c
00000000 l    df *ABS*	00000000 alt_do_dtors.c
00000000 l    df *ABS*	00000000 alt_find_dev.c
00000000 l    df *ABS*	00000000 alt_icache_flush_all.c
00000000 l    df *ABS*	00000000 alt_io_redirect.c
01018588 l     F .text	000000c0 alt_open_fd
00000000 l    df *ABS*	00000000 alt_irq_register.c
00000000 l    df *ABS*	00000000 alt_irq_vars.c
00000000 l    df *ABS*	00000000 alt_open.c
01018870 l     F .text	00000050 alt_get_errno
010188c0 l     F .text	000000cc alt_file_locked
00000000 l    df *ABS*	00000000 alt_tick.c
00000000 l    df *ABS*	00000000 altera_nios2_qsys_irq.c
00000000 l    df *ABS*	00000000 alt_find_file.c
00000000 l    df *ABS*	00000000 alt_get_fd.c
00000000 l    df *ABS*	00000000 alt_icache_flush.c
00000000 l    df *ABS*	00000000 atexit.c
00000000 l    df *ABS*	00000000 exit.c
00000000 l    df *ABS*	00000000 __atexit.c
00000000 l    df *ABS*	00000000 __call_atexit.c
00000000 l    df *ABS*	00000000 alt_exit.c
0101d094 g     O .bss	00000004 geoidheight
010105c4 g     F .text	00000074 _mprec_log10
010106b0 g     F .text	0000008c __any_on
01013b50 g     F .text	00000054 _isatty_r
010197f4 g     O .rodata	00000028 __mprec_tinytens
0101675c g     F .text	00000078 alt_main
0101d098 g     O .bss	00000004 paused
01004cb4 g     F .text	000000b8 _puts_r
0101d444 g     O .bss	00000100 alt_irq
01013ba4 g     F .text	0000005c _lseek_r
01001a0c g     F .text	00000070 FloatToLongitudeConversion
0101b51c g       *ABS*	00000000 __flash_rwdata_start
0101d09c g     O .bss	00000004 LOCUS_distance
01017880 g     F .text	0000003c alt_up_character_lcd_send_cmd
01003f9c g     F .text	00000084 .hidden __eqdf2
0101d544 g       *ABS*	00000000 __alt_heap_start
01004c78 g     F .text	0000003c printf
0101d0a0 g     O .bss	00000004 lastline
01013dcc g     F .text	0000009c _wcrtomb_r
01010e08 g     F .text	0000005c __sseek
0100d1a8 g     F .text	00000010 __sinit
01013c5c g     F .text	00000154 __swbuf_r
0100e854 g     F .text	0000007c _setlocale_r
0100d014 g     F .text	00000064 __sfmoreglue
010167f4 g     F .text	00000020 __malloc_unlock
01017f0c g     F .text	00000090 alt_up_rs232_read_fd
01005914 g     F .text	00001540 _strtod_r
010027b4 g     F .text	00000450 .hidden __divsf3
01004c30 g     F .text	0000000c _atol_r
0100f530 g     F .text	0000015c memmove
0100d190 g     F .text	00000018 _cleanup
0100f7b0 g     F .text	000000a8 _Balloc
01003524 g     F .text	00000078 .hidden __fixsfsi
01015610 g     F .text	000000e0 .hidden __gtdf2
01004c24 g     F .text	0000000c atol
01004c3c g     F .text	00000010 __errno
0101780c g     F .text	00000074 get_DDRAM_addr
01000000 g     F .entry	0000001c __reset
01000020 g       *ABS*	00000000 __flash_exceptions_start
01013af8 g     F .text	00000058 _fstat_r
01001f28 g     F .text	00000330 __ieee754_fmod
0101d148 g     O .bss	00000004 errno
01010d84 g     F .text	00000008 __seofread
0101d0a4 g     O .bss	00000004 fixquality
01011198 g     F .text	00001068 ___svfiprintf_internal_r
0101d150 g     O .bss	00000004 alt_argv
010234d4 g       *ABS*	00000000 _gp
01016a70 g     F .text	00000030 usleep
01003028 g     F .text	000004fc .hidden __subsf3
0101d0a8 g     O .bss	00000004 inStandbyMode
0101a29c g     O .rwdata	00000180 alt_fd_list
0101d0ac g     O .bss	00000004 LOCUS_serial
010184c8 g     F .text	00000090 alt_find_dev
0100f3f8 g     F .text	00000138 memcpy
0100e5c0 g     F .text	00000294 __hexnan
0100020c g     F .text	00000110 Init_GPSCHIP
01017a1c g     F .text	00000050 alt_up_character_lcd_write_fd
0100ce68 g     F .text	0000000c _cleanup_r
010160a0 g     F .text	000000d0 .hidden __floatsidf
01018648 g     F .text	00000078 alt_io_redirect
010156f0 g     F .text	000000e0 .hidden __ltdf2
0101921c g       *ABS*	00000000 __DTOR_END__
01017e98 g     F .text	00000074 alt_up_rs232_read_data
01004d6c g     F .text	00000014 puts
01002258 g     F .text	00000074 __fpclassifyd
01010520 g     F .text	000000a4 __ratio
01013670 g     F .text	00000024 __vfiprintf_internal
010172f0 g     F .text	0000020c altera_avalon_jtag_uart_read
00000000  w      *UND*	00000000 malloc
01004c4c g     F .text	0000002c _printf_r
00000000 g       *ABS*	00000000 __alt_mem_onchip_memory2_0
01004bf4 g     F .text	00000008 .hidden __udivsi3
010164b0 g     F .text	000000a4 isatty
01019844 g     O .rodata	000000c8 __mprec_tens
0100e8d0 g     F .text	0000000c __locale_charset
01014cbc g     F .text	000000b8 .hidden __lesf2
01013fcc g     F .text	00000074 .hidden __fixunsdfsi
01018e68 g     F .text	0000008c alt_icache_flush
0101d144 g     O .bss	00000004 __malloc_top_pad
0101b4e4 g     O .rwdata	00000004 __mb_cur_max
0100e900 g     F .text	0000000c _localeconv_r
0101d0b0 g     O .bss	00000004 magvariation
0100fbb0 g     F .text	0000003c __i2b
0100d60c g     F .text	000004a4 __sfvwrite_r
010018fc g     F .text	00000050 standby
0101d0b4 g     O .bss	00000004 month
01010cdc g     F .text	00000054 _sbrk_r
01013c00 g     F .text	0000005c _read_r
0101b504 g     O .rwdata	00000004 alt_max_fd
01017e14 g     F .text	00000044 alt_up_rs232_check_parity
01013808 g     F .text	00000100 _fclose_r
0100ce28 g     F .text	00000030 fflush
0101d140 g     O .bss	00000004 __malloc_max_sbrked_mem
010186c0 g     F .text	000001b0 alt_irq_register
010047cc g     F .text	00000110 .hidden __extendsfdf2
01014d74 g     F .text	0000089c .hidden __adddf3
01014b90 g     F .text	00000074 .hidden __nesf2
010102c8 g     F .text	0000011c __b2d
01014600 g     F .text	00000590 .hidden __umoddi3
01016688 g     F .text	000000d4 lseek
0101b4d4 g     O .rwdata	00000004 __fdlib_version
0101b4dc g     O .rwdata	00000004 _global_impure_ptr
0101073c g     F .text	000005a0 _realloc_r
0101d544 g       *ABS*	00000000 __bss_end
0101d090 g     O .bss	00000004 lineidx
01018b7c g     F .text	00000104 alt_tick
0101d344 g     O .bss	00000100 __hexdig
01014040 g     F .text	000005c0 .hidden __udivdi3
0101391c g     F .text	00000184 _fputwc_r
0101981c g     O .rodata	00000028 __mprec_bigtens
0100f994 g     F .text	00000104 __s2b
01016170 g     F .text	000000a4 .hidden __floatunsidf
01010070 g     F .text	00000060 __mcmp
0100d1c8 g     F .text	00000018 __fp_lock_all
01001ad0 g     F .text	00000084 sendCommand
0101d0b8 g     O .bss	00000004 LOCUS_config
01018ae4 g     F .text	00000098 alt_alarm_stop
01001410 g     F .text	0000009c parseHex
010071d4 g     F .text	00000024 strtol
0101d158 g     O .bss	00000004 alt_irq_active
01001c48 g     F .text	00000030 GPSCHIPTestForReceivedData
0100194c g     F .text	00000050 wakeup
010000ec g     F .exceptions	000000d4 alt_irq_handler
0101a274 g     O .rwdata	00000028 alt_dev_null
0100199c g     F .text	00000070 FloatToLatitudeConversion
01017cb0 g     F .text	00000034 alt_up_character_lcd_cursor_blink_on
0101d0bc g     O .bss	00000004 minute
010182d8 g     F .text	00000044 alt_dcache_flush_all
0100fa98 g     F .text	00000068 __hi0bits
01004744 g     F .text	00000088 .hidden __fixdfsi
01006e54 g     F .text	0000001c strtod
0101b51c g       *ABS*	00000000 __ram_rwdata_end
0101b4fc g     O .rwdata	00000008 alt_dev_list
01016af0 g     F .text	000000f8 write
01004c04 g     F .text	00000008 atof
01014c04 g     F .text	000000b8 .hidden __gtsf2
010199a8 g       *ABS*	00000000 __ram_rodata_end
010163b0 g     F .text	000000b0 fstat
01017f9c g     F .text	00000094 alt_up_rs232_write_fd
010156f0 g     F .text	000000e0 .hidden __ledf2
0101d0c0 g     O .bss	00000004 LOCUS_mode
0100fde8 g     F .text	00000140 __pow5mult
01012314 g     F .text	0000135c ___vfiprintf_internal_r
0101d138 g     O .bss	00000004 __nlocale_changed
01004bfc g     F .text	00000008 .hidden __umodsi3
0101d544 g       *ABS*	00000000 end
01004c18 g     F .text	0000000c _atoi_r
01016e34 g     F .text	000000b8 altera_avalon_jtag_uart_init
0101921c g       *ABS*	00000000 __CTOR_LIST__
01800000 g       *ABS*	00000000 __alt_stack_pointer
0101778c g     F .text	00000080 alt_avalon_timer_sc_init
01004a74 g     F .text	00000064 .hidden __clzsi2
01001dd0 g     F .text	00000158 fmod
010174fc g     F .text	00000218 altera_avalon_jtag_uart_write
0100d1b8 g     F .text	00000004 __sfp_lock_acquire
0100f294 g     F .text	000000e8 memchr
01017930 g     F .text	00000078 alt_up_character_lcd_write
01009188 g     F .text	00001ffc ___vfprintf_internal_r
01004d80 g     F .text	00000058 _sprintf_r
0100d31c g     F .text	000002f0 _free_r
0100e8dc g     F .text	00000010 __locale_mb_cur_max
01019054 g     F .text	00000194 __call_exitprocs
0101d134 g     O .bss	00000004 __mlocale_changed
0101b4e8 g     O .rwdata	00000004 __malloc_sbrk_base
010001c0 g     F .text	0000004c _start
0101d15c g     O .bss	00000004 _alt_tick_rate
0100559c g     F .text	00000378 strstr
0100ff28 g     F .text	00000148 __lshift
0101d160 g     O .bss	00000004 _alt_nticks
0100031c g     F .text	000010f4 parseData
01016864 g     F .text	000000fc read
01001540 g     F .text	00000020 newNMEAreceived
01016c54 g     F .text	0000007c alt_sys_init
01017b68 g     F .text	00000088 alt_up_character_lcd_shift_display
0100359c g     F .text	00000134 .hidden __floatsisf
01010fd0 g     F .text	000001c8 __ssprint_r
0101d0c4 g     O .bss	00000004 latitude_fixed
01018f40 g     F .text	00000114 __register_exitproc
0101d0c8 g     O .bss	00000004 milliseconds
01010f10 g     F .text	000000c0 strncmp
01017dd8 g     F .text	0000003c alt_up_rs232_get_available_space_in_write_FIFO
0100fbec g     F .text	000001fc __multiply
01017bf0 g     F .text	0000008c alt_up_character_lcd_erase_pos
0101719c g     F .text	00000068 altera_avalon_jtag_uart_close
010199a8 g       *ABS*	00000000 __ram_rwdata_start
0101921c g       *ABS*	00000000 __ram_rodata_start
01005040 g     F .text	000000ec strncpy
0101d0cc g     O .bss	00000004 receivedFlag
0101d22c g     O .bss	00000028 __malloc_current_mallinfo
01014b90 g     F .text	00000074 .hidden __eqsf2
010103e4 g     F .text	0000013c __d2b
0101d0d0 g     O .bss	00000004 hour
01016cd0 g     F .text	00000060 altera_avalon_jtag_uart_read_fd
01018db4 g     F .text	000000b4 alt_get_fd
01001584 g     F .text	00000040 LOCUS_StartLogger
010181b0 g     F .text	00000128 alt_busy_sleep
010136f0 g     F .text	00000054 _close_r
0101d0d4 g     O .bss	00000004 angle
0100f37c g     F .text	0000007c memcmp
01016d90 g     F .text	00000050 altera_avalon_jtag_uart_close_fd
0101d544 g       *ABS*	00000000 __alt_stack_base
01016de0 g     F .text	00000054 altera_avalon_jtag_uart_ioctl_fd
010014ac g     F .text	00000094 waitForSentence
0100b1a8 g     F .text	00000130 __swsetup_r
010036d0 g     F .text	000008cc .hidden __divdf3
0100d078 g     F .text	00000118 __sfp
01010638 g     F .text	00000078 __copybits
01019e6c g     O .rwdata	00000408 __malloc_av_
0100d1c4 g     F .text	00000004 __sinit_lock_release
01004020 g     F .text	00000724 .hidden __muldf3
01010d30 g     F .text	00000054 __sread
01017d3c g     F .text	0000005c alt_up_rs232_disable_read_interrupt
01018ca0 g     F .text	00000114 alt_find_file
0101836c g     F .text	000000a4 alt_dev_llist_insert
010167d4 g     F .text	00000020 __malloc_lock
010169c0 g     F .text	000000b0 sbrk
010071f8 g     F .text	00001f90 ___svfprintf_internal_r
0100cc00 g     F .text	00000228 _fflush_r
01013744 g     F .text	000000c4 _calloc_r
0101d0d8 g     O .bss	00000001 lon
0101d254 g     O .bss	00000078 line1
0101d090 g       *ABS*	00000000 __bss_start
0100f68c g     F .text	00000124 memset
0101d0dc g     O .bss	00000004 longitude
01001ca8 g     F .text	00000128 main
0101d154 g     O .bss	00000004 alt_envp
0101d13c g     O .bss	00000004 __malloc_max_total_mem
01016d30 g     F .text	00000060 altera_avalon_jtag_uart_write_fd
01013db0 g     F .text	0000001c __swbuf
010015c4 g     F .text	00000040 LOCUS_StopLogger
0101d0e0 g     O .bss	00000004 satellites
0101d0e4 g     O .bss	00000004 altitude
01014cbc g     F .text	000000b8 .hidden __ltsf2
01001b54 g     F .text	000000f4 getcharGPSCHIP
01017ae0 g     F .text	00000088 alt_up_character_lcd_shift_cursor
01010e64 g     F .text	00000008 __sclose
010022cc g     F .text	00000008 matherr
01800000 g       *ABS*	00000000 __alt_heap_limit
01013908 g     F .text	00000014 fclose
01006f74 g     F .text	00000260 _strtol_r
010048dc g     F .text	00000198 .hidden __truncdfsf2
0100b4d8 g     F .text	00001728 _dtoa_r
0100eaec g     F .text	000007a8 _malloc_r
01013f40 g     F .text	00000030 __ascii_wctomb
0101d0e8 g     O .bss	00000004 longitude_fixed
0101b508 g     O .rwdata	00000004 alt_errno
0101d0ec g     O .bss	00000004 LOCUS_percent
0101d0f0 g     O .bss	00000004 seconds
0100dab0 g     F .text	000000b8 _fwalk
0101d0f4 g     O .bss	00000004 LOCUS_type
0101d0f8 g     O .bss	00000004 fix
01004b44 g     F .text	00000054 .hidden __divsi3
010178f0 g     F .text	00000040 alt_up_character_lcd_open_dev
0100d1f8 g     F .text	00000124 _malloc_trim_r
0101921c g       *ABS*	00000000 __CTOR_END__
01002c04 g     F .text	00000424 .hidden __mulsf3
010178bc g     F .text	00000034 alt_up_character_lcd_init
01010e6c g     F .text	000000a4 strcmp
01001a7c g     F .text	00000054 putcharGPSCHIP
0101921c g       *ABS*	00000000 __flash_rodata_start
0101921c g       *ABS*	00000000 __DTOR_LIST__
0101d0fc g     O .bss	00000004 longitudeDegrees
01018030 g     F .text	00000040 alt_up_rs232_open_dev
01001c78 g     F .text	00000030 GPSCHIPTestForTransmitData
01003f9c g     F .text	00000084 .hidden __nedf2
0101d100 g     O .bss	00000004 LOCUS_status
01016c20 g     F .text	00000034 alt_irq_init
01016960 g     F .text	00000060 alt_release_fd
01004dd8 g     F .text	0000006c sprintf
01017c7c g     F .text	00000034 alt_up_character_lcd_cursor_off
01019368 g     O .rodata	00000100 .hidden __clz_tab
0101d130 g     O .bss	00000004 _PathLocale
0101d104 g     O .bss	00000004 latitudeDegrees
01006e70 g     F .text	00000104 strtof
0101d108 g     O .bss	00000004 year
01018ef4 g     F .text	00000014 atexit
01014c04 g     F .text	000000b8 .hidden __gesf2
01013694 g     F .text	0000005c _write_r
0101d10c g     O .bss	00000004 LOCUS_speed
0100e90c g     F .text	0000001c setlocale
0101b4e0 g     O .rwdata	00000004 _impure_ptr
0101d14c g     O .bss	00000004 alt_argc
0101846c g     F .text	0000005c _do_dtors
0100e8f8 g     F .text	00000008 __locale_cjk_lang
0101d110 g     O .bss	00000004 latitude
0101d114 g     O .bss	00000004 day
0101d118 g     O .bss	00000004 LOCUS_records
0101d2cc g     O .bss	00000078 line2
01000020 g       .exceptions	00000000 alt_irq_entry
0101d11c g     O .bss	00000004 speed
01010268 g     F .text	00000060 __ulp
0100d1e0 g     F .text	00000018 __fp_unlock_all
0101b4f4 g     O .rwdata	00000008 alt_fs_list
01017ce4 g     F .text	00000058 alt_up_rs232_enable_read_interrupt
01017e58 g     F .text	00000040 alt_up_rs232_write_data
01000020 g       *ABS*	00000000 __ram_exceptions_start
0100e928 g     F .text	0000000c localeconv
01000000 g       *ABS*	00000000 __alt_mem_new_sdram_controller_0
0100dd20 g     F .text	00000084 __hexdig_init
0101b51c g       *ABS*	00000000 _edata
0101d544 g       *ABS*	00000000 _end
010001c0 g       *ABS*	00000000 __ram_exceptions_end
01017204 g     F .text	000000ec altera_avalon_jtag_uart_ioctl
01010d8c g     F .text	0000007c __swrite
01001604 g     F .text	000002f8 LOCUS_ReadStatus
0101b4ec g     O .rwdata	00000004 __malloc_trim_threshold
01018c80 g     F .text	00000020 altera_nios2_qsys_irq_init
0100e8ec g     F .text	0000000c __locale_msgcharset
01018f08 g     F .text	00000038 exit
0100db68 g     F .text	000000b8 _fwalk_reent
010100d0 g     F .text	00000198 __mdiff
01004b98 g     F .text	0000005c .hidden __modsi3
0101b4d8 g     O .rwdata	00000004 __ctype_ptr__
01800000 g       *ABS*	00000000 __alt_data_end
01000020 g     F .exceptions	00000000 alt_exception
0100d1bc g     F .text	00000004 __sfp_lock_release
010179a8 g     F .text	00000074 alt_up_character_lcd_string
01004c0c g     F .text	0000000c atoi
0101d120 g     O .bss	00000004 currentline
01019468 g     O .rodata	00000101 _ctype_
010191e8 g     F .text	00000034 _exit
01018070 g     F .text	00000140 alt_alarm_start
0100e934 g     F .text	000001b8 __smakebuf_r
01004fa8 g     F .text	00000098 strlen
0101898c g     F .text	00000158 open
01015610 g     F .text	000000e0 .hidden __gedf2
0100dda4 g     F .text	0000081c __gethex
0101d124 g     O .bss	00000004 HDOP
0101d128 g     O .bss	00000001 lat
0101b4f0 g     O .rwdata	00000004 __wctomb
010122fc g     F .text	00000018 __sprint_r
01018558 g     F .text	00000030 alt_icache_flush_all
01004e44 g     F .text	00000164 strchr
01017a6c g     F .text	00000074 alt_up_character_lcd_set_cursor_pos
0101b510 g     O .rwdata	00000004 alt_priority_mask
0100b184 g     F .text	00000024 __vfprintf_internal
01013f70 g     F .text	0000005c _wctomb_r
0101d129 g     O .bss	00000001 mag
0101d12c g     O .bss	00000004 LOCUS_interval
010157d0 g     F .text	000008d0 .hidden __subdf3
0100fb00 g     F .text	000000b0 __lo0bits
0101b514 g     O .rwdata	00000008 alt_alarm_list
01018410 g     F .text	0000005c _do_ctors
01017d98 g     F .text	00000040 alt_up_rs232_get_used_space_in_read_FIFO
01013e68 g     F .text	000000d8 wcrtomb
01016264 g     F .text	000000d0 close
010022d4 g     F .text	000004e0 .hidden __addsf3
01001560 g     F .text	00000024 lastNMEA
010165b8 g     F .text	00000080 alt_load
01013aa0 g     F .text	00000058 fputwc
00000000  w      *UND*	00000000 free
0100d1c0 g     F .text	00000004 __sinit_lock_acquire
0100f880 g     F .text	00000114 __multadd
0100f858 g     F .text	00000028 _Bfree



Disassembly of section .entry:

01000000 <__reset>:
#if NIOS2_ICACHE_SIZE > 0 && defined(ALT_ALLOW_CODE_AT_RESET) && !defined(ALT_SIM_OPTIMIZE)
    /* Assume the instruction cache size is always a power of two. */
#if NIOS2_ICACHE_SIZE > 0x8000
    movhi r2, %hi(NIOS2_ICACHE_SIZE)
#else
    movui r2, NIOS2_ICACHE_SIZE
 1000000:	00900014 	movui	r2,16384
#endif

0:
    initi r2
 1000004:	1001483a 	initi	r2
    addi r2, r2, -NIOS2_ICACHE_LINE_SIZE
 1000008:	10bff804 	addi	r2,r2,-32
    bgt r2, zero, 0b
 100000c:	00bffd16 	blt	zero,r2,1000004 <__alt_data_end+0xff800004>
 * Jump to the _start entry point in the .text section if reset code
 * is allowed or if optimizing for RTL simulation.
 */
#if defined(ALT_ALLOW_CODE_AT_RESET) || defined(ALT_SIM_OPTIMIZE)
    /* Jump to the _start entry point in the .text section. */
    movhi r1, %hi(_start)
 1000010:	00404034 	movhi	at,256
    ori r1, r1, %lo(_start)
 1000014:	08407014 	ori	at,at,448
    jmp r1
 1000018:	0800683a 	jmp	at
 100001c:	00000000 	call	0 <__alt_mem_onchip_memory2_0>

Disassembly of section .exceptions:

01000020 <alt_exception>:

#else /* ALT_EXCEPTION_STACK disabled */
        /* 
         * Reserve space on normal stack for registers about to be pushed.
         */
        addi  sp, sp, -76
 1000020:	deffed04 	addi	sp,sp,-76
         * documentation for details).
         *
         * Leave a gap in the stack frame at 4(sp) for the muldiv handler to
         * store zero into.
         */
        stw   ra,  0(sp)
 1000024:	dfc00015 	stw	ra,0(sp)
        stw   r1,   8(sp)
 1000028:	d8400215 	stw	at,8(sp)
        stw   r2,  12(sp)
 100002c:	d8800315 	stw	r2,12(sp)
        stw   r3,  16(sp)
 1000030:	d8c00415 	stw	r3,16(sp)
        stw   r4,  20(sp)
 1000034:	d9000515 	stw	r4,20(sp)
        stw   r5,  24(sp)
 1000038:	d9400615 	stw	r5,24(sp)
        stw   r6,  28(sp)
 100003c:	d9800715 	stw	r6,28(sp)
        stw   r7,  32(sp)
 1000040:	d9c00815 	stw	r7,32(sp)
        rdctl r5, estatus   /* Read early to avoid usage stall */
 1000044:	000b307a 	rdctl	r5,estatus
        stw   r8,  36(sp)
 1000048:	da000915 	stw	r8,36(sp)
        stw   r9,  40(sp)
 100004c:	da400a15 	stw	r9,40(sp)
        stw   r10, 44(sp)
 1000050:	da800b15 	stw	r10,44(sp)
        stw   r11, 48(sp)
 1000054:	dac00c15 	stw	r11,48(sp)
        stw   r12, 52(sp)
 1000058:	db000d15 	stw	r12,52(sp)
        stw   r13, 56(sp)
 100005c:	db400e15 	stw	r13,56(sp)
        stw   r14, 60(sp)
 1000060:	db800f15 	stw	r14,60(sp)
        stw   r15, 64(sp)
 1000064:	dbc01015 	stw	r15,64(sp)
        /*
         * ea-4 contains the address of the instruction being executed
         * when the exception occured. For interrupt exceptions, we will
         * will be re-issue the isntruction. Store it in 72(sp)
         */
        stw   r5,  68(sp)  /* estatus */
 1000068:	d9401115 	stw	r5,68(sp)
        addi  r15, ea, -4  /* instruction that caused exception */
 100006c:	ebffff04 	addi	r15,ea,-4
        stw   r15,  72(sp)
 1000070:	dbc01215 	stw	r15,72(sp)
#else
        /*
         * Test to see if the exception was a software exception or caused 
         * by an external interrupt, and vector accordingly.
         */
        rdctl r4, ipending
 1000074:	0009313a 	rdctl	r4,ipending
        andi  r2, r5, 1
 1000078:	2880004c 	andi	r2,r5,1
        beq   r2, zero, .Lnot_irq
 100007c:	10000326 	beq	r2,zero,100008c <alt_exception+0x6c>
        beq   r4, zero, .Lnot_irq
 1000080:	20000226 	beq	r4,zero,100008c <alt_exception+0x6c>
        /*
         * Now that all necessary registers have been preserved, call 
         * alt_irq_handler() to process the interrupts.
         */

        call alt_irq_handler
 1000084:	10000ec0 	call	10000ec <alt_irq_handler>

        .section .exceptions.irqreturn, "xa"

        br    .Lexception_exit
 1000088:	00000306 	br	1000098 <alt_exception_unknown+0x4>
         * upon completion, so we write ea (address of instruction *after*
         * the one where the exception occured) into 72(sp). The actual
         * instruction that caused the exception is written in r2, which these
         * handlers will utilize.
         */
        stw   ea,  72(sp)  /* Don't re-issue */
 100008c:	df401215 	stw	ea,72(sp)
        ldw   r2, -4(ea)   /* Instruction that caused exception */
 1000090:	e8bfff17 	ldw	r2,-4(ea)

01000094 <alt_exception_unknown>:
#ifdef NIOS2_HAS_DEBUG_STUB
       /*
        *  Either tell the user now (if there is a debugger attached) or go into
        *  the debug monitor which will loop until a debugger is attached.
        */
        break
 1000094:	003da03a 	break	0
        /* 
         * Restore the saved registers, so that all general purpose registers 
         * have been restored to their state at the time the interrupt occured.
         */

        ldw   r5,  68(sp)
 1000098:	d9401117 	ldw	r5,68(sp)
        ldw   ea,  72(sp)  /* This becomes the PC once eret is executed */
 100009c:	df401217 	ldw	ea,72(sp)
        ldw   ra,   0(sp)
 10000a0:	dfc00017 	ldw	ra,0(sp)

        wrctl estatus, r5
 10000a4:	2801707a 	wrctl	estatus,r5

        ldw   r1,   8(sp)
 10000a8:	d8400217 	ldw	at,8(sp)
        ldw   r2,  12(sp)
 10000ac:	d8800317 	ldw	r2,12(sp)
        ldw   r3,  16(sp)
 10000b0:	d8c00417 	ldw	r3,16(sp)
        ldw   r4,  20(sp)
 10000b4:	d9000517 	ldw	r4,20(sp)
        ldw   r5,  24(sp)
 10000b8:	d9400617 	ldw	r5,24(sp)
        ldw   r6,  28(sp)
 10000bc:	d9800717 	ldw	r6,28(sp)
        ldw   r7,  32(sp)
 10000c0:	d9c00817 	ldw	r7,32(sp)

#if defined(ALT_EXCEPTION_STACK) && defined(ALT_STACK_CHECK)
        ldw   et, %gprel(alt_exception_old_stack_limit)(gp)
#endif

        ldw   r8,  36(sp)
 10000c4:	da000917 	ldw	r8,36(sp)
        ldw   r9,  40(sp)
 10000c8:	da400a17 	ldw	r9,40(sp)
        ldw   r10, 44(sp)
 10000cc:	da800b17 	ldw	r10,44(sp)
        ldw   r11, 48(sp)
 10000d0:	dac00c17 	ldw	r11,48(sp)
        ldw   r12, 52(sp)
 10000d4:	db000d17 	ldw	r12,52(sp)
        ldw   r13, 56(sp)
 10000d8:	db400e17 	ldw	r13,56(sp)
        ldw   r14, 60(sp)
 10000dc:	db800f17 	ldw	r14,60(sp)
        ldw   r15, 64(sp)
 10000e0:	dbc01017 	ldw	r15,64(sp)
        stw   et, %gprel(alt_stack_limit_value)(gp)
        stw   zero, %gprel(alt_exception_old_stack_limit)(gp)
#endif /* ALT_STACK_CHECK */
        ldw   sp,  76(sp)
#else /* ALT_EXCEPTION_STACK disabled */
        addi  sp, sp, 76
 10000e4:	dec01304 	addi	sp,sp,76

        /*
         * Return to the interrupted instruction.
         */

        eret
 10000e8:	ef80083a 	eret

010000ec <alt_irq_handler>:
 * instruction is present if the macro ALT_CI_INTERRUPT_VECTOR defined.
 */

void alt_irq_handler (void) __attribute__ ((section (".exceptions")));
void alt_irq_handler (void)
{
 10000ec:	defff904 	addi	sp,sp,-28
 10000f0:	dfc00615 	stw	ra,24(sp)
 10000f4:	df000515 	stw	fp,20(sp)
 10000f8:	df000504 	addi	fp,sp,20
  
  /*
   * Notify the operating system that we are at interrupt level.
   */ 
  
  ALT_OS_INT_ENTER();
 10000fc:	0001883a 	nop
#ifndef NIOS2_EIC_PRESENT
static ALT_INLINE alt_u32 ALT_ALWAYS_INLINE alt_irq_pending (void)
{
  alt_u32 active;

  NIOS2_READ_IPENDING (active);
 1000100:	0005313a 	rdctl	r2,ipending
 1000104:	e0bffe15 	stw	r2,-8(fp)

  return active;
 1000108:	e0bffe17 	ldw	r2,-8(fp)
   * Consider the case where the high priority interupt is asserted during
   * the interrupt entry sequence for a lower priority interrupt to see why
   * this is the case.
   */

  active = alt_irq_pending ();
 100010c:	e0bffb15 	stw	r2,-20(fp)

  do
  {
    i = 0;
 1000110:	e03ffd15 	stw	zero,-12(fp)
    mask = 1;
 1000114:	00800044 	movi	r2,1
 1000118:	e0bffc15 	stw	r2,-16(fp)
     * called to clear the interrupt condition.
     */

    do
    {
      if (active & mask)
 100011c:	e0fffb17 	ldw	r3,-20(fp)
 1000120:	e0bffc17 	ldw	r2,-16(fp)
 1000124:	1884703a 	and	r2,r3,r2
 1000128:	10001526 	beq	r2,zero,1000180 <alt_irq_handler+0x94>
      { 
#ifdef ALT_ENHANCED_INTERRUPT_API_PRESENT
        alt_irq[i].handler(alt_irq[i].context); 
#else
        alt_irq[i].handler(alt_irq[i].context, i); 
 100012c:	008040b4 	movhi	r2,258
 1000130:	10b51104 	addi	r2,r2,-11196
 1000134:	e0fffd17 	ldw	r3,-12(fp)
 1000138:	180690fa 	slli	r3,r3,3
 100013c:	10c5883a 	add	r2,r2,r3
 1000140:	10c00017 	ldw	r3,0(r2)
 1000144:	008040b4 	movhi	r2,258
 1000148:	10b51104 	addi	r2,r2,-11196
 100014c:	e13ffd17 	ldw	r4,-12(fp)
 1000150:	200890fa 	slli	r4,r4,3
 1000154:	1105883a 	add	r2,r2,r4
 1000158:	10800104 	addi	r2,r2,4
 100015c:	10800017 	ldw	r2,0(r2)
 1000160:	1009883a 	mov	r4,r2
 1000164:	e17ffd17 	ldw	r5,-12(fp)
 1000168:	183ee83a 	callr	r3
#endif
        break;
 100016c:	0001883a 	nop
#ifndef NIOS2_EIC_PRESENT
static ALT_INLINE alt_u32 ALT_ALWAYS_INLINE alt_irq_pending (void)
{
  alt_u32 active;

  NIOS2_READ_IPENDING (active);
 1000170:	0005313a 	rdctl	r2,ipending
 1000174:	e0bfff15 	stw	r2,-4(fp)

  return active;
 1000178:	e0bfff17 	ldw	r2,-4(fp)
 100017c:	00000706 	br	100019c <alt_irq_handler+0xb0>
      }
      mask <<= 1;
 1000180:	e0bffc17 	ldw	r2,-16(fp)
 1000184:	1085883a 	add	r2,r2,r2
 1000188:	e0bffc15 	stw	r2,-16(fp)
      i++;
 100018c:	e0bffd17 	ldw	r2,-12(fp)
 1000190:	10800044 	addi	r2,r2,1
 1000194:	e0bffd15 	stw	r2,-12(fp)

    } while (1);
 1000198:	003fe006 	br	100011c <__alt_data_end+0xff80011c>

    active = alt_irq_pending ();
 100019c:	e0bffb15 	stw	r2,-20(fp)
    
  } while (active);
 10001a0:	e0bffb17 	ldw	r2,-20(fp)
 10001a4:	103fda1e 	bne	r2,zero,1000110 <__alt_data_end+0xff800110>

  /*
   * Notify the operating system that interrupt processing is complete.
   */ 

  ALT_OS_INT_EXIT();
 10001a8:	0001883a 	nop
}
 10001ac:	e037883a 	mov	sp,fp
 10001b0:	dfc00117 	ldw	ra,4(sp)
 10001b4:	df000017 	ldw	fp,0(sp)
 10001b8:	dec00204 	addi	sp,sp,8
 10001bc:	f800283a 	ret

Disassembly of section .text:

010001c0 <_start>:

    /* Assume the data cache size is always a power of two. */
#if NIOS2_DCACHE_SIZE > 0x8000
    movhi r2, %hi(NIOS2_DCACHE_SIZE)
#else
    movui r2, NIOS2_DCACHE_SIZE
 10001c0:	00820014 	movui	r2,2048
#endif

0:
    initd 0(r2)
 10001c4:	10000033 	initd	0(r2)
#ifdef NIOS2_ECC_PRESENT
    addi r2, r2, -4
#else
    addi r2, r2, -NIOS2_DCACHE_LINE_SIZE
 10001c8:	10bff804 	addi	r2,r2,-32
#endif
    bgt r2, zero, 0b
 10001cc:	00bffd16 	blt	zero,r2,10001c4 <__alt_data_end+0xff8001c4>

    /*
     * Now that the caches are initialized, set up the stack pointer and global pointer.
     * The values provided by the linker are assumed to be correctly aligned.
     */
    movhi sp, %hi(__alt_stack_pointer)
 10001d0:	06c06034 	movhi	sp,384
    ori sp, sp, %lo(__alt_stack_pointer)
 10001d4:	dec00014 	ori	sp,sp,0
    movhi gp, %hi(_gp)
 10001d8:	068040b4 	movhi	gp,258
    ori gp, gp, %lo(_gp)
 10001dc:	d68d3514 	ori	gp,gp,13524
 */
#ifndef ALT_SIM_OPTIMIZE
    /* Log that the BSS is about to be cleared. */
    ALT_LOG_PUTS(alt_log_msg_bss)

    movhi r2, %hi(__bss_start)
 10001e0:	00804074 	movhi	r2,257
    ori r2, r2, %lo(__bss_start)
 10001e4:	10b42414 	ori	r2,r2,53392

    movhi r3, %hi(__bss_end)
 10001e8:	00c04074 	movhi	r3,257
    ori r3, r3, %lo(__bss_end)
 10001ec:	18f55114 	ori	r3,r3,54596

    beq r2, r3, 1f
 10001f0:	10c00326 	beq	r2,r3,1000200 <_start+0x40>

0:
    stw zero, (r2)
 10001f4:	10000015 	stw	zero,0(r2)
    addi r2, r2, 4
 10001f8:	10800104 	addi	r2,r2,4
    bltu r2, r3, 0b
 10001fc:	10fffd36 	bltu	r2,r3,10001f4 <__alt_data_end+0xff8001f4>
     * section aren't defined until alt_load() has been called).
     */
    mov   et, zero
#endif

    call alt_load
 1000200:	10165b80 	call	10165b8 <alt_load>

    /* Log that alt_main is about to be called. */
    ALT_LOG_PUTS(alt_log_msg_alt_main)

    /* Call the C entry point. It should never return. */
    call alt_main
 1000204:	101675c0 	call	101675c <alt_main>

01000208 <alt_after_alt_main>:

    /* Wait in infinite loop in case alt_main does return. */
alt_after_alt_main:
    br alt_after_alt_main
 1000208:	003fff06 	br	1000208 <__alt_data_end+0xff800208>

0100020c <Init_GPSCHIP>:




void Init_GPSCHIP(void)
{
 100020c:	defffe04 	addi	sp,sp,-8
 1000210:	dfc00115 	stw	ra,4(sp)
 1000214:	df000015 	stw	fp,0(sp)
 1000218:	d839883a 	mov	fp,sp
 // program baud rate generator to use 115k baud

	//The 6850 Control Register write only
	// RS232_Control(7 DOWNTO 0) = |X|1|0|1|0|1|0|1| = 0b01010101 = 0x55 rts high & interrupt disable
	// RS232_Control(7 DOWNTO 0) = |X|0|0|1|0|1|0|1| = 0b00010101 = 0x15
	GPSCHIP_Control = 0x15;
 100021c:	00a10034 	movhi	r2,33792
 1000220:	10808404 	addi	r2,r2,528
 1000224:	00c00544 	movi	r3,21
 1000228:	10c00005 	stb	r3,0(r2)
	GPSCHIP_Baud = 0x05; // program for 9600 baud
 100022c:	00a10034 	movhi	r2,33792
 1000230:	10808504 	addi	r2,r2,532
 1000234:	00c00144 	movi	r3,5
 1000238:	10c00005 	stb	r3,0(r2)
	printf("Initializing GPS CHIP");
 100023c:	010040b4 	movhi	r4,258
 1000240:	21248704 	addi	r4,r4,-28132
 1000244:	1004c780 	call	1004c78 <printf>
	receivedFlag = 0;
 1000248:	d026fe15 	stw	zero,-25608(gp)
	paused = 0;
 100024c:	d026f115 	stw	zero,-25660(gp)
	lineidx = 0;
 1000250:	d026ef15 	stw	zero,-25668(gp)
	currentline = line1;
 1000254:	008040b4 	movhi	r2,258
 1000258:	10b49504 	addi	r2,r2,-11692
 100025c:	d0a71315 	stw	r2,-25524(gp)
	lastline = line2;
 1000260:	008040b4 	movhi	r2,258
 1000264:	10b4b304 	addi	r2,r2,-11572
 1000268:	d0a6f315 	stw	r2,-25652(gp)

	hour = minute = seconds = year = month = day =
	fixquality = satellites = 0; // int
 100026c:	d0270315 	stw	zero,-25588(gp)
 1000270:	d0a70317 	ldw	r2,-25588(gp)
 1000274:	d0a6f415 	stw	r2,-25648(gp)
 1000278:	d0a6f417 	ldw	r2,-25648(gp)
	paused = 0;
	lineidx = 0;
	currentline = line1;
	lastline = line2;

	hour = minute = seconds = year = month = day =
 100027c:	d0a71015 	stw	r2,-25536(gp)
 1000280:	d0a71017 	ldw	r2,-25536(gp)
 1000284:	d0a6f815 	stw	r2,-25632(gp)
 1000288:	d0a6f817 	ldw	r2,-25632(gp)
 100028c:	d0a70d15 	stw	r2,-25548(gp)
 1000290:	d0a70d17 	ldw	r2,-25548(gp)
 1000294:	d0a70715 	stw	r2,-25572(gp)
 1000298:	d0a70717 	ldw	r2,-25572(gp)
 100029c:	d0a6fa15 	stw	r2,-25624(gp)
 10002a0:	d0a6fa17 	ldw	r2,-25624(gp)
 10002a4:	d0a6ff15 	stw	r2,-25604(gp)
	fixquality = satellites = 0; // int
	lat = lon = mag = 0; // char
 10002a8:	d0271545 	stb	zero,-25515(gp)
 10002ac:	d0a71543 	ldbu	r2,-25515(gp)
 10002b0:	d0a70105 	stb	r2,-25596(gp)
 10002b4:	d0a70103 	ldbu	r2,-25596(gp)
 10002b8:	d0a71505 	stb	r2,-25516(gp)
	fix = 0; // boolean
 10002bc:	d0270915 	stw	zero,-25564(gp)
	milliseconds = 0; // int
 10002c0:	d026fd15 	stw	zero,-25612(gp)
	latitude = longitude = geoidheight = altitude =
	speed = angle = magvariation = HDOP = 0.0; // float
 10002c4:	d0271415 	stw	zero,-25520(gp)
 10002c8:	d0a71417 	ldw	r2,-25520(gp)
 10002cc:	d0a6f715 	stw	r2,-25636(gp)
 10002d0:	d0a6f717 	ldw	r2,-25636(gp)
 10002d4:	d0a70015 	stw	r2,-25600(gp)
 10002d8:	d0a70017 	ldw	r2,-25600(gp)
 10002dc:	d0a71215 	stw	r2,-25528(gp)
 10002e0:	d0a71217 	ldw	r2,-25528(gp)
	hour = minute = seconds = year = month = day =
	fixquality = satellites = 0; // int
	lat = lon = mag = 0; // char
	fix = 0; // boolean
	milliseconds = 0; // int
	latitude = longitude = geoidheight = altitude =
 10002e4:	d0a70415 	stw	r2,-25584(gp)
 10002e8:	d0a70417 	ldw	r2,-25584(gp)
 10002ec:	d0a6f015 	stw	r2,-25664(gp)
 10002f0:	d0a6f017 	ldw	r2,-25664(gp)
 10002f4:	d0a70215 	stw	r2,-25592(gp)
 10002f8:	d0a70217 	ldw	r2,-25592(gp)
 10002fc:	d0a70f15 	stw	r2,-25540(gp)
	speed = angle = magvariation = HDOP = 0.0; // float
	usleep(10000);
 1000300:	0109c404 	movi	r4,10000
 1000304:	1016a700 	call	1016a70 <usleep>
}
 1000308:	e037883a 	mov	sp,fp
 100030c:	dfc00117 	ldw	ra,4(sp)
 1000310:	df000017 	ldw	fp,0(sp)
 1000314:	dec00204 	addi	sp,sp,8
 1000318:	f800283a 	ret

0100031c <parseData>:


int parseData(char *data) {
 100031c:	deffeb04 	addi	sp,sp,-84
 1000320:	dfc01415 	stw	ra,80(sp)
 1000324:	df001315 	stw	fp,76(sp)
 1000328:	dc001215 	stw	r16,72(sp)
 100032c:	df001304 	addi	fp,sp,76
 1000330:	e13ffe15 	stw	r4,-8(fp)

	if(data[strlen(data) - 4] == '*'){
 1000334:	e13ffe17 	ldw	r4,-8(fp)
 1000338:	1004fa80 	call	1004fa8 <strlen>
 100033c:	10bfff04 	addi	r2,r2,-4
 1000340:	e0fffe17 	ldw	r3,-8(fp)
 1000344:	1885883a 	add	r2,r3,r2
 1000348:	10800003 	ldbu	r2,0(r2)
 100034c:	10803fcc 	andi	r2,r2,255
 1000350:	1080201c 	xori	r2,r2,128
 1000354:	10bfe004 	addi	r2,r2,-128
 1000358:	10800a98 	cmpnei	r2,r2,42
 100035c:	1000371e 	bne	r2,zero,100043c <parseData+0x120>
		int sum = parseHex(data[strlen(data) -3])*16;
 1000360:	e13ffe17 	ldw	r4,-8(fp)
 1000364:	1004fa80 	call	1004fa8 <strlen>
 1000368:	10bfff44 	addi	r2,r2,-3
 100036c:	e0fffe17 	ldw	r3,-8(fp)
 1000370:	1885883a 	add	r2,r3,r2
 1000374:	10800003 	ldbu	r2,0(r2)
 1000378:	10803fcc 	andi	r2,r2,255
 100037c:	1080201c 	xori	r2,r2,128
 1000380:	10bfe004 	addi	r2,r2,-128
 1000384:	1009883a 	mov	r4,r2
 1000388:	10014100 	call	1001410 <parseHex>
 100038c:	1004913a 	slli	r2,r2,4
 1000390:	e0bfed15 	stw	r2,-76(fp)
		sum += parseHex(data[strlen(data) - 2]);
 1000394:	e13ffe17 	ldw	r4,-8(fp)
 1000398:	1004fa80 	call	1004fa8 <strlen>
 100039c:	10bfff84 	addi	r2,r2,-2
 10003a0:	e0fffe17 	ldw	r3,-8(fp)
 10003a4:	1885883a 	add	r2,r3,r2
 10003a8:	10800003 	ldbu	r2,0(r2)
 10003ac:	10803fcc 	andi	r2,r2,255
 10003b0:	1080201c 	xori	r2,r2,128
 10003b4:	10bfe004 	addi	r2,r2,-128
 10003b8:	1009883a 	mov	r4,r2
 10003bc:	10014100 	call	1001410 <parseHex>
 10003c0:	1007883a 	mov	r3,r2
 10003c4:	e0bfed17 	ldw	r2,-76(fp)
 10003c8:	10c5883a 	add	r2,r2,r3
 10003cc:	e0bfed15 	stw	r2,-76(fp)

		//check checksum
		int i;
		int length = strlen(data) -4;
 10003d0:	e13ffe17 	ldw	r4,-8(fp)
 10003d4:	1004fa80 	call	1004fa8 <strlen>
 10003d8:	10bfff04 	addi	r2,r2,-4
 10003dc:	e0bff115 	stw	r2,-60(fp)
		for(i = 2; i < length; i++) {
 10003e0:	00800084 	movi	r2,2
 10003e4:	e0bfee15 	stw	r2,-72(fp)
 10003e8:	00000d06 	br	1000420 <parseData+0x104>
			sum ^= data[i];
 10003ec:	e0bfee17 	ldw	r2,-72(fp)
 10003f0:	e0fffe17 	ldw	r3,-8(fp)
 10003f4:	1885883a 	add	r2,r3,r2
 10003f8:	10800003 	ldbu	r2,0(r2)
 10003fc:	10803fcc 	andi	r2,r2,255
 1000400:	1080201c 	xori	r2,r2,128
 1000404:	10bfe004 	addi	r2,r2,-128
 1000408:	e0ffed17 	ldw	r3,-76(fp)
 100040c:	1884f03a 	xor	r2,r3,r2
 1000410:	e0bfed15 	stw	r2,-76(fp)
		sum += parseHex(data[strlen(data) - 2]);

		//check checksum
		int i;
		int length = strlen(data) -4;
		for(i = 2; i < length; i++) {
 1000414:	e0bfee17 	ldw	r2,-72(fp)
 1000418:	10800044 	addi	r2,r2,1
 100041c:	e0bfee15 	stw	r2,-72(fp)
 1000420:	e0ffee17 	ldw	r3,-72(fp)
 1000424:	e0bff117 	ldw	r2,-60(fp)
 1000428:	18bff016 	blt	r3,r2,10003ec <__alt_data_end+0xff8003ec>
			sum ^= data[i];
		}

		if(sum != 0) {
 100042c:	e0bfed17 	ldw	r2,-76(fp)
 1000430:	10000226 	beq	r2,zero,100043c <parseData+0x120>
			return 0;
 1000434:	0005883a 	mov	r2,zero
 1000438:	0003ef06 	br	10013f8 <parseData+0x10dc>
	int32_t degree;
	long minutes;
	char degreebuff[10];

	//GGA format
	if(strstr(data, "$GPGGA")) {
 100043c:	e13ffe17 	ldw	r4,-8(fp)
 1000440:	014040b4 	movhi	r5,258
 1000444:	29648d04 	addi	r5,r5,-28108
 1000448:	100559c0 	call	100559c <strstr>
 100044c:	1001ee26 	beq	r2,zero,1000c08 <parseData+0x8ec>
		char *p = data;
 1000450:	e0bffe17 	ldw	r2,-8(fp)
 1000454:	e0bfef15 	stw	r2,-68(fp)
		p = strchr(p, ',') + 1;
 1000458:	e13fef17 	ldw	r4,-68(fp)
 100045c:	01400b04 	movi	r5,44
 1000460:	1004e440 	call	1004e44 <strchr>
 1000464:	10800044 	addi	r2,r2,1
 1000468:	e0bfef15 	stw	r2,-68(fp)
		float timef = atof(p);
 100046c:	e13fef17 	ldw	r4,-68(fp)
 1000470:	1004c040 	call	1004c04 <atof>
 1000474:	100b883a 	mov	r5,r2
 1000478:	180d883a 	mov	r6,r3
 100047c:	2809883a 	mov	r4,r5
 1000480:	300b883a 	mov	r5,r6
 1000484:	10048dc0 	call	10048dc <__truncdfsf2>
 1000488:	1007883a 	mov	r3,r2
 100048c:	e0fff215 	stw	r3,-56(fp)
		int time = timef;
 1000490:	e13ff217 	ldw	r4,-56(fp)
 1000494:	10035240 	call	1003524 <__fixsfsi>
 1000498:	e0bff315 	stw	r2,-52(fp)
		hour = time/10000;
 100049c:	e0fff317 	ldw	r3,-52(fp)
 10004a0:	0089c404 	movi	r2,10000
 10004a4:	1885283a 	div	r2,r3,r2
 10004a8:	d0a6ff15 	stw	r2,-25604(gp)
		minute = (time % 10000) / 100;
 10004ac:	e0bff317 	ldw	r2,-52(fp)
 10004b0:	00c9c404 	movi	r3,10000
 10004b4:	10c7283a 	div	r3,r2,r3
 10004b8:	18c9c424 	muli	r3,r3,10000
 10004bc:	10c7c83a 	sub	r3,r2,r3
 10004c0:	00801904 	movi	r2,100
 10004c4:	1885283a 	div	r2,r3,r2
 10004c8:	d0a6fa15 	stw	r2,-25624(gp)
		seconds = (time % 100);
 10004cc:	e0bff317 	ldw	r2,-52(fp)
 10004d0:	00c01904 	movi	r3,100
 10004d4:	10c7283a 	div	r3,r2,r3
 10004d8:	18c01924 	muli	r3,r3,100
 10004dc:	10c5c83a 	sub	r2,r2,r3
 10004e0:	d0a70715 	stw	r2,-25572(gp)

		milliseconds = fmod(timef, 1.0)*1000;
 10004e4:	e13ff217 	ldw	r4,-56(fp)
 10004e8:	10047cc0 	call	10047cc <__extendsfdf2>
 10004ec:	100b883a 	mov	r5,r2
 10004f0:	180d883a 	mov	r6,r3
 10004f4:	2809883a 	mov	r4,r5
 10004f8:	300b883a 	mov	r5,r6
 10004fc:	000d883a 	mov	r6,zero
 1000500:	01cffc34 	movhi	r7,16368
 1000504:	1001dd00 	call	1001dd0 <fmod>
 1000508:	100b883a 	mov	r5,r2
 100050c:	180d883a 	mov	r6,r3
 1000510:	2809883a 	mov	r4,r5
 1000514:	300b883a 	mov	r5,r6
 1000518:	000d883a 	mov	r6,zero
 100051c:	01d023f4 	movhi	r7,16527
 1000520:	39d00004 	addi	r7,r7,16384
 1000524:	10040200 	call	1004020 <__muldf3>
 1000528:	1009883a 	mov	r4,r2
 100052c:	180b883a 	mov	r5,r3
 1000530:	2005883a 	mov	r2,r4
 1000534:	2807883a 	mov	r3,r5
 1000538:	1009883a 	mov	r4,r2
 100053c:	180b883a 	mov	r5,r3
 1000540:	10047440 	call	1004744 <__fixdfsi>
 1000544:	d0a6fd15 	stw	r2,-25612(gp)

		//latitude

		p = strchr(p, ',') + 1;
 1000548:	e13fef17 	ldw	r4,-68(fp)
 100054c:	01400b04 	movi	r5,44
 1000550:	1004e440 	call	1004e44 <strchr>
 1000554:	10800044 	addi	r2,r2,1
 1000558:	e0bfef15 	stw	r2,-68(fp)
		if(',' != *p)
 100055c:	e0bfef17 	ldw	r2,-68(fp)
 1000560:	10800003 	ldbu	r2,0(r2)
 1000564:	10803fcc 	andi	r2,r2,255
 1000568:	1080201c 	xori	r2,r2,128
 100056c:	10bfe004 	addi	r2,r2,-128
 1000570:	10800b20 	cmpeqi	r2,r2,44
 1000574:	1000651e 	bne	r2,zero,100070c <parseData+0x3f0>
		{
			strncpy(degreebuff, p ,2);
 1000578:	e0bffb04 	addi	r2,fp,-20
 100057c:	1009883a 	mov	r4,r2
 1000580:	e17fef17 	ldw	r5,-68(fp)
 1000584:	01800084 	movi	r6,2
 1000588:	10050400 	call	1005040 <strncpy>
			p +=2;
 100058c:	e0bfef17 	ldw	r2,-68(fp)
 1000590:	10800084 	addi	r2,r2,2
 1000594:	e0bfef15 	stw	r2,-68(fp)
			degreebuff[2] = '\0';
 1000598:	e03ffb85 	stb	zero,-18(fp)
			degree = atol(degreebuff)*10000000;
 100059c:	e0bffb04 	addi	r2,fp,-20
 10005a0:	1009883a 	mov	r4,r2
 10005a4:	1004c240 	call	1004c24 <atol>
 10005a8:	1007883a 	mov	r3,r2
 10005ac:	00802674 	movhi	r2,153
 10005b0:	10a5a004 	addi	r2,r2,-27008
 10005b4:	1885383a 	mul	r2,r3,r2
 10005b8:	e0bff415 	stw	r2,-48(fp)
			strncpy(degreebuff, p, 2);
 10005bc:	e0bffb04 	addi	r2,fp,-20
 10005c0:	1009883a 	mov	r4,r2
 10005c4:	e17fef17 	ldw	r5,-68(fp)
 10005c8:	01800084 	movi	r6,2
 10005cc:	10050400 	call	1005040 <strncpy>
			p += 3;
 10005d0:	e0bfef17 	ldw	r2,-68(fp)
 10005d4:	108000c4 	addi	r2,r2,3
 10005d8:	e0bfef15 	stw	r2,-68(fp)
			strncpy(degreebuff + 2, p , 4);
 10005dc:	e0bffb04 	addi	r2,fp,-20
 10005e0:	10800084 	addi	r2,r2,2
 10005e4:	1009883a 	mov	r4,r2
 10005e8:	e17fef17 	ldw	r5,-68(fp)
 10005ec:	01800104 	movi	r6,4
 10005f0:	10050400 	call	1005040 <strncpy>
			degreebuff[6] = '\0';
 10005f4:	e03ffc85 	stb	zero,-14(fp)
			minutes = 50*atol(degreebuff) / 3;
 10005f8:	e0bffb04 	addi	r2,fp,-20
 10005fc:	1009883a 	mov	r4,r2
 1000600:	1004c240 	call	1004c24 <atol>
 1000604:	10c00ca4 	muli	r3,r2,50
 1000608:	008000c4 	movi	r2,3
 100060c:	1885283a 	div	r2,r3,r2
 1000610:	e0bff515 	stw	r2,-44(fp)
			latitude_fixed = degree + minutes;
 1000614:	e0fff417 	ldw	r3,-48(fp)
 1000618:	e0bff517 	ldw	r2,-44(fp)
 100061c:	1885883a 	add	r2,r3,r2
 1000620:	d0a6fc15 	stw	r2,-25616(gp)
			latitude = degree/100000 + minutes*0.000006F;
 1000624:	e0fff417 	ldw	r3,-48(fp)
 1000628:	008000b4 	movhi	r2,2
 100062c:	10a1a804 	addi	r2,r2,-31072
 1000630:	1885283a 	div	r2,r3,r2
 1000634:	1009883a 	mov	r4,r2
 1000638:	100359c0 	call	100359c <__floatsisf>
 100063c:	1021883a 	mov	r16,r2
 1000640:	e13ff517 	ldw	r4,-44(fp)
 1000644:	100359c0 	call	100359c <__floatsisf>
 1000648:	1007883a 	mov	r3,r2
 100064c:	1809883a 	mov	r4,r3
 1000650:	014db274 	movhi	r5,14025
 1000654:	2954e704 	addi	r5,r5,21404
 1000658:	1002c040 	call	1002c04 <__mulsf3>
 100065c:	1007883a 	mov	r3,r2
 1000660:	1805883a 	mov	r2,r3
 1000664:	8009883a 	mov	r4,r16
 1000668:	100b883a 	mov	r5,r2
 100066c:	10022d40 	call	10022d4 <__addsf3>
 1000670:	1007883a 	mov	r3,r2
 1000674:	1805883a 	mov	r2,r3
 1000678:	d0a70f15 	stw	r2,-25540(gp)
			latitudeDegrees = (latitude-100*(latitude/100))/60.0;
 100067c:	d4270f17 	ldw	r16,-25540(gp)
 1000680:	d0a70f17 	ldw	r2,-25540(gp)
 1000684:	1009883a 	mov	r4,r2
 1000688:	0150b234 	movhi	r5,17096
 100068c:	10027b40 	call	10027b4 <__divsf3>
 1000690:	1007883a 	mov	r3,r2
 1000694:	1805883a 	mov	r2,r3
 1000698:	1009883a 	mov	r4,r2
 100069c:	0150b234 	movhi	r5,17096
 10006a0:	1002c040 	call	1002c04 <__mulsf3>
 10006a4:	1007883a 	mov	r3,r2
 10006a8:	1805883a 	mov	r2,r3
 10006ac:	8009883a 	mov	r4,r16
 10006b0:	100b883a 	mov	r5,r2
 10006b4:	10030280 	call	1003028 <__subsf3>
 10006b8:	1007883a 	mov	r3,r2
 10006bc:	1805883a 	mov	r2,r3
 10006c0:	1009883a 	mov	r4,r2
 10006c4:	01509c34 	movhi	r5,17008
 10006c8:	10027b40 	call	10027b4 <__divsf3>
 10006cc:	1007883a 	mov	r3,r2
 10006d0:	1805883a 	mov	r2,r3
 10006d4:	d0a70c15 	stw	r2,-25552(gp)
			latitudeDegrees += (latitude/100);
 10006d8:	d0a70f17 	ldw	r2,-25540(gp)
 10006dc:	1009883a 	mov	r4,r2
 10006e0:	0150b234 	movhi	r5,17096
 10006e4:	10027b40 	call	10027b4 <__divsf3>
 10006e8:	1009883a 	mov	r4,r2
 10006ec:	2007883a 	mov	r3,r4
 10006f0:	d0a70c17 	ldw	r2,-25552(gp)
 10006f4:	1809883a 	mov	r4,r3
 10006f8:	100b883a 	mov	r5,r2
 10006fc:	10022d40 	call	10022d4 <__addsf3>
 1000700:	1007883a 	mov	r3,r2
 1000704:	1805883a 	mov	r2,r3
 1000708:	d0a70c15 	stw	r2,-25552(gp)
		}

	    p = strchr(p, ',')+1;
 100070c:	e13fef17 	ldw	r4,-68(fp)
 1000710:	01400b04 	movi	r5,44
 1000714:	1004e440 	call	1004e44 <strchr>
 1000718:	10800044 	addi	r2,r2,1
 100071c:	e0bfef15 	stw	r2,-68(fp)
	    if (',' != *p)
 1000720:	e0bfef17 	ldw	r2,-68(fp)
 1000724:	10800003 	ldbu	r2,0(r2)
 1000728:	10803fcc 	andi	r2,r2,255
 100072c:	1080201c 	xori	r2,r2,128
 1000730:	10bfe004 	addi	r2,r2,-128
 1000734:	10800b20 	cmpeqi	r2,r2,44
 1000738:	1000291e 	bne	r2,zero,10007e0 <parseData+0x4c4>
	    {
	      if (p[0] == 'S') latitudeDegrees *= -1.0;
 100073c:	e0bfef17 	ldw	r2,-68(fp)
 1000740:	10800003 	ldbu	r2,0(r2)
 1000744:	10803fcc 	andi	r2,r2,255
 1000748:	1080201c 	xori	r2,r2,128
 100074c:	10bfe004 	addi	r2,r2,-128
 1000750:	108014d8 	cmpnei	r2,r2,83
 1000754:	1000031e 	bne	r2,zero,1000764 <parseData+0x448>
 1000758:	d0a70c17 	ldw	r2,-25552(gp)
 100075c:	10a0003c 	xorhi	r2,r2,32768
 1000760:	d0a70c15 	stw	r2,-25552(gp)
	      if (p[0] == 'N') lat = 'N';
 1000764:	e0bfef17 	ldw	r2,-68(fp)
 1000768:	10800003 	ldbu	r2,0(r2)
 100076c:	10803fcc 	andi	r2,r2,255
 1000770:	1080201c 	xori	r2,r2,128
 1000774:	10bfe004 	addi	r2,r2,-128
 1000778:	10801398 	cmpnei	r2,r2,78
 100077c:	1000031e 	bne	r2,zero,100078c <parseData+0x470>
 1000780:	00801384 	movi	r2,78
 1000784:	d0a71505 	stb	r2,-25516(gp)
 1000788:	00001506 	br	10007e0 <parseData+0x4c4>
	      else if (p[0] == 'S') lat = 'S';
 100078c:	e0bfef17 	ldw	r2,-68(fp)
 1000790:	10800003 	ldbu	r2,0(r2)
 1000794:	10803fcc 	andi	r2,r2,255
 1000798:	1080201c 	xori	r2,r2,128
 100079c:	10bfe004 	addi	r2,r2,-128
 10007a0:	108014d8 	cmpnei	r2,r2,83
 10007a4:	1000031e 	bne	r2,zero,10007b4 <parseData+0x498>
 10007a8:	008014c4 	movi	r2,83
 10007ac:	d0a71505 	stb	r2,-25516(gp)
 10007b0:	00000b06 	br	10007e0 <parseData+0x4c4>
	      else if (p[0] == ',') lat = 0;
 10007b4:	e0bfef17 	ldw	r2,-68(fp)
 10007b8:	10800003 	ldbu	r2,0(r2)
 10007bc:	10803fcc 	andi	r2,r2,255
 10007c0:	1080201c 	xori	r2,r2,128
 10007c4:	10bfe004 	addi	r2,r2,-128
 10007c8:	10800b18 	cmpnei	r2,r2,44
 10007cc:	1000021e 	bne	r2,zero,10007d8 <parseData+0x4bc>
 10007d0:	d0271505 	stb	zero,-25516(gp)
 10007d4:	00000206 	br	10007e0 <parseData+0x4c4>
	      else return 0;
 10007d8:	0005883a 	mov	r2,zero
 10007dc:	00030606 	br	10013f8 <parseData+0x10dc>
	    }

	    p = strchr(p, ',')+1;
 10007e0:	e13fef17 	ldw	r4,-68(fp)
 10007e4:	01400b04 	movi	r5,44
 10007e8:	1004e440 	call	1004e44 <strchr>
 10007ec:	10800044 	addi	r2,r2,1
 10007f0:	e0bfef15 	stw	r2,-68(fp)

	    if (',' != *p)
 10007f4:	e0bfef17 	ldw	r2,-68(fp)
 10007f8:	10800003 	ldbu	r2,0(r2)
 10007fc:	10803fcc 	andi	r2,r2,255
 1000800:	1080201c 	xori	r2,r2,128
 1000804:	10bfe004 	addi	r2,r2,-128
 1000808:	10800b20 	cmpeqi	r2,r2,44
 100080c:	1000651e 	bne	r2,zero,10009a4 <parseData+0x688>
	    {
	       strncpy(degreebuff, p, 3);
 1000810:	e0bffb04 	addi	r2,fp,-20
 1000814:	1009883a 	mov	r4,r2
 1000818:	e17fef17 	ldw	r5,-68(fp)
 100081c:	018000c4 	movi	r6,3
 1000820:	10050400 	call	1005040 <strncpy>
	       p += 3;
 1000824:	e0bfef17 	ldw	r2,-68(fp)
 1000828:	108000c4 	addi	r2,r2,3
 100082c:	e0bfef15 	stw	r2,-68(fp)
	       degreebuff[3] = '\0';
 1000830:	e03ffbc5 	stb	zero,-17(fp)
	       degree = atol(degreebuff) * 10000000;
 1000834:	e0bffb04 	addi	r2,fp,-20
 1000838:	1009883a 	mov	r4,r2
 100083c:	1004c240 	call	1004c24 <atol>
 1000840:	1007883a 	mov	r3,r2
 1000844:	00802674 	movhi	r2,153
 1000848:	10a5a004 	addi	r2,r2,-27008
 100084c:	1885383a 	mul	r2,r3,r2
 1000850:	e0bff415 	stw	r2,-48(fp)
	       strncpy(degreebuff, p, 2); // minutes
 1000854:	e0bffb04 	addi	r2,fp,-20
 1000858:	1009883a 	mov	r4,r2
 100085c:	e17fef17 	ldw	r5,-68(fp)
 1000860:	01800084 	movi	r6,2
 1000864:	10050400 	call	1005040 <strncpy>
	       p += 3; // skip decimal point
 1000868:	e0bfef17 	ldw	r2,-68(fp)
 100086c:	108000c4 	addi	r2,r2,3
 1000870:	e0bfef15 	stw	r2,-68(fp)
	       strncpy(degreebuff + 2, p, 4);
 1000874:	e0bffb04 	addi	r2,fp,-20
 1000878:	10800084 	addi	r2,r2,2
 100087c:	1009883a 	mov	r4,r2
 1000880:	e17fef17 	ldw	r5,-68(fp)
 1000884:	01800104 	movi	r6,4
 1000888:	10050400 	call	1005040 <strncpy>
	       degreebuff[6] = '\0';
 100088c:	e03ffc85 	stb	zero,-14(fp)
	       minutes = 50 * atol(degreebuff) / 3;
 1000890:	e0bffb04 	addi	r2,fp,-20
 1000894:	1009883a 	mov	r4,r2
 1000898:	1004c240 	call	1004c24 <atol>
 100089c:	10c00ca4 	muli	r3,r2,50
 10008a0:	008000c4 	movi	r2,3
 10008a4:	1885283a 	div	r2,r3,r2
 10008a8:	e0bff515 	stw	r2,-44(fp)
	       longitude_fixed = degree + minutes;
 10008ac:	e0fff417 	ldw	r3,-48(fp)
 10008b0:	e0bff517 	ldw	r2,-44(fp)
 10008b4:	1885883a 	add	r2,r3,r2
 10008b8:	d0a70515 	stw	r2,-25580(gp)
	       longitude = degree / 100000 + minutes * 0.000006F;
 10008bc:	e0fff417 	ldw	r3,-48(fp)
 10008c0:	008000b4 	movhi	r2,2
 10008c4:	10a1a804 	addi	r2,r2,-31072
 10008c8:	1885283a 	div	r2,r3,r2
 10008cc:	1009883a 	mov	r4,r2
 10008d0:	100359c0 	call	100359c <__floatsisf>
 10008d4:	1021883a 	mov	r16,r2
 10008d8:	e13ff517 	ldw	r4,-44(fp)
 10008dc:	100359c0 	call	100359c <__floatsisf>
 10008e0:	1007883a 	mov	r3,r2
 10008e4:	1809883a 	mov	r4,r3
 10008e8:	014db274 	movhi	r5,14025
 10008ec:	2954e704 	addi	r5,r5,21404
 10008f0:	1002c040 	call	1002c04 <__mulsf3>
 10008f4:	1007883a 	mov	r3,r2
 10008f8:	1805883a 	mov	r2,r3
 10008fc:	8009883a 	mov	r4,r16
 1000900:	100b883a 	mov	r5,r2
 1000904:	10022d40 	call	10022d4 <__addsf3>
 1000908:	1007883a 	mov	r3,r2
 100090c:	1805883a 	mov	r2,r3
 1000910:	d0a70215 	stw	r2,-25592(gp)
	       longitudeDegrees = (longitude-100*(longitude/100))/60.0;
 1000914:	d4270217 	ldw	r16,-25592(gp)
 1000918:	d0a70217 	ldw	r2,-25592(gp)
 100091c:	1009883a 	mov	r4,r2
 1000920:	0150b234 	movhi	r5,17096
 1000924:	10027b40 	call	10027b4 <__divsf3>
 1000928:	1007883a 	mov	r3,r2
 100092c:	1805883a 	mov	r2,r3
 1000930:	1009883a 	mov	r4,r2
 1000934:	0150b234 	movhi	r5,17096
 1000938:	1002c040 	call	1002c04 <__mulsf3>
 100093c:	1007883a 	mov	r3,r2
 1000940:	1805883a 	mov	r2,r3
 1000944:	8009883a 	mov	r4,r16
 1000948:	100b883a 	mov	r5,r2
 100094c:	10030280 	call	1003028 <__subsf3>
 1000950:	1007883a 	mov	r3,r2
 1000954:	1805883a 	mov	r2,r3
 1000958:	1009883a 	mov	r4,r2
 100095c:	01509c34 	movhi	r5,17008
 1000960:	10027b40 	call	10027b4 <__divsf3>
 1000964:	1007883a 	mov	r3,r2
 1000968:	1805883a 	mov	r2,r3
 100096c:	d0a70a15 	stw	r2,-25560(gp)
	       longitudeDegrees += (longitude/100);
 1000970:	d0a70217 	ldw	r2,-25592(gp)
 1000974:	1009883a 	mov	r4,r2
 1000978:	0150b234 	movhi	r5,17096
 100097c:	10027b40 	call	10027b4 <__divsf3>
 1000980:	1009883a 	mov	r4,r2
 1000984:	2007883a 	mov	r3,r4
 1000988:	d0a70a17 	ldw	r2,-25560(gp)
 100098c:	1809883a 	mov	r4,r3
 1000990:	100b883a 	mov	r5,r2
 1000994:	10022d40 	call	10022d4 <__addsf3>
 1000998:	1007883a 	mov	r3,r2
 100099c:	1805883a 	mov	r2,r3
 10009a0:	d0a70a15 	stw	r2,-25560(gp)
	    }

	    p = strchr(p, ',')+1;
 10009a4:	e13fef17 	ldw	r4,-68(fp)
 10009a8:	01400b04 	movi	r5,44
 10009ac:	1004e440 	call	1004e44 <strchr>
 10009b0:	10800044 	addi	r2,r2,1
 10009b4:	e0bfef15 	stw	r2,-68(fp)
	      if (',' != *p)
 10009b8:	e0bfef17 	ldw	r2,-68(fp)
 10009bc:	10800003 	ldbu	r2,0(r2)
 10009c0:	10803fcc 	andi	r2,r2,255
 10009c4:	1080201c 	xori	r2,r2,128
 10009c8:	10bfe004 	addi	r2,r2,-128
 10009cc:	10800b20 	cmpeqi	r2,r2,44
 10009d0:	1000291e 	bne	r2,zero,1000a78 <parseData+0x75c>
	      {
	        if (p[0] == 'W') longitudeDegrees *= -1.0;
 10009d4:	e0bfef17 	ldw	r2,-68(fp)
 10009d8:	10800003 	ldbu	r2,0(r2)
 10009dc:	10803fcc 	andi	r2,r2,255
 10009e0:	1080201c 	xori	r2,r2,128
 10009e4:	10bfe004 	addi	r2,r2,-128
 10009e8:	108015d8 	cmpnei	r2,r2,87
 10009ec:	1000031e 	bne	r2,zero,10009fc <parseData+0x6e0>
 10009f0:	d0a70a17 	ldw	r2,-25560(gp)
 10009f4:	10a0003c 	xorhi	r2,r2,32768
 10009f8:	d0a70a15 	stw	r2,-25560(gp)
	        if (p[0] == 'W') lon = 'W';
 10009fc:	e0bfef17 	ldw	r2,-68(fp)
 1000a00:	10800003 	ldbu	r2,0(r2)
 1000a04:	10803fcc 	andi	r2,r2,255
 1000a08:	1080201c 	xori	r2,r2,128
 1000a0c:	10bfe004 	addi	r2,r2,-128
 1000a10:	108015d8 	cmpnei	r2,r2,87
 1000a14:	1000031e 	bne	r2,zero,1000a24 <parseData+0x708>
 1000a18:	008015c4 	movi	r2,87
 1000a1c:	d0a70105 	stb	r2,-25596(gp)
 1000a20:	00001506 	br	1000a78 <parseData+0x75c>
	        else if (p[0] == 'E') lon = 'E';
 1000a24:	e0bfef17 	ldw	r2,-68(fp)
 1000a28:	10800003 	ldbu	r2,0(r2)
 1000a2c:	10803fcc 	andi	r2,r2,255
 1000a30:	1080201c 	xori	r2,r2,128
 1000a34:	10bfe004 	addi	r2,r2,-128
 1000a38:	10801158 	cmpnei	r2,r2,69
 1000a3c:	1000031e 	bne	r2,zero,1000a4c <parseData+0x730>
 1000a40:	00801144 	movi	r2,69
 1000a44:	d0a70105 	stb	r2,-25596(gp)
 1000a48:	00000b06 	br	1000a78 <parseData+0x75c>
	        else if (p[0] == ',') lon = 0;
 1000a4c:	e0bfef17 	ldw	r2,-68(fp)
 1000a50:	10800003 	ldbu	r2,0(r2)
 1000a54:	10803fcc 	andi	r2,r2,255
 1000a58:	1080201c 	xori	r2,r2,128
 1000a5c:	10bfe004 	addi	r2,r2,-128
 1000a60:	10800b18 	cmpnei	r2,r2,44
 1000a64:	1000021e 	bne	r2,zero,1000a70 <parseData+0x754>
 1000a68:	d0270105 	stb	zero,-25596(gp)
 1000a6c:	00000206 	br	1000a78 <parseData+0x75c>
	        else return 0;
 1000a70:	0005883a 	mov	r2,zero
 1000a74:	00026006 	br	10013f8 <parseData+0x10dc>
	      }

	      p = strchr(p, ',')+1;
 1000a78:	e13fef17 	ldw	r4,-68(fp)
 1000a7c:	01400b04 	movi	r5,44
 1000a80:	1004e440 	call	1004e44 <strchr>
 1000a84:	10800044 	addi	r2,r2,1
 1000a88:	e0bfef15 	stw	r2,-68(fp)
	         if (',' != *p)
 1000a8c:	e0bfef17 	ldw	r2,-68(fp)
 1000a90:	10800003 	ldbu	r2,0(r2)
 1000a94:	10803fcc 	andi	r2,r2,255
 1000a98:	1080201c 	xori	r2,r2,128
 1000a9c:	10bfe004 	addi	r2,r2,-128
 1000aa0:	10800b20 	cmpeqi	r2,r2,44
 1000aa4:	1000031e 	bne	r2,zero,1000ab4 <parseData+0x798>
	         {
	           fixquality = atoi(p);
 1000aa8:	e13fef17 	ldw	r4,-68(fp)
 1000aac:	1004c0c0 	call	1004c0c <atoi>
 1000ab0:	d0a6f415 	stw	r2,-25648(gp)
	         }

	         p = strchr(p, ',')+1;
 1000ab4:	e13fef17 	ldw	r4,-68(fp)
 1000ab8:	01400b04 	movi	r5,44
 1000abc:	1004e440 	call	1004e44 <strchr>
 1000ac0:	10800044 	addi	r2,r2,1
 1000ac4:	e0bfef15 	stw	r2,-68(fp)
	         if (',' != *p)
 1000ac8:	e0bfef17 	ldw	r2,-68(fp)
 1000acc:	10800003 	ldbu	r2,0(r2)
 1000ad0:	10803fcc 	andi	r2,r2,255
 1000ad4:	1080201c 	xori	r2,r2,128
 1000ad8:	10bfe004 	addi	r2,r2,-128
 1000adc:	10800b20 	cmpeqi	r2,r2,44
 1000ae0:	1000031e 	bne	r2,zero,1000af0 <parseData+0x7d4>
	         {
	           satellites = atoi(p);
 1000ae4:	e13fef17 	ldw	r4,-68(fp)
 1000ae8:	1004c0c0 	call	1004c0c <atoi>
 1000aec:	d0a70315 	stw	r2,-25588(gp)
	         }

	         p = strchr(p, ',')+1;
 1000af0:	e13fef17 	ldw	r4,-68(fp)
 1000af4:	01400b04 	movi	r5,44
 1000af8:	1004e440 	call	1004e44 <strchr>
 1000afc:	10800044 	addi	r2,r2,1
 1000b00:	e0bfef15 	stw	r2,-68(fp)
	         if (',' != *p)
 1000b04:	e0bfef17 	ldw	r2,-68(fp)
 1000b08:	10800003 	ldbu	r2,0(r2)
 1000b0c:	10803fcc 	andi	r2,r2,255
 1000b10:	1080201c 	xori	r2,r2,128
 1000b14:	10bfe004 	addi	r2,r2,-128
 1000b18:	10800b20 	cmpeqi	r2,r2,44
 1000b1c:	1000091e 	bne	r2,zero,1000b44 <parseData+0x828>
	         {
	           HDOP = atof(p);
 1000b20:	e13fef17 	ldw	r4,-68(fp)
 1000b24:	1004c040 	call	1004c04 <atof>
 1000b28:	100b883a 	mov	r5,r2
 1000b2c:	180d883a 	mov	r6,r3
 1000b30:	2809883a 	mov	r4,r5
 1000b34:	300b883a 	mov	r5,r6
 1000b38:	10048dc0 	call	10048dc <__truncdfsf2>
 1000b3c:	1007883a 	mov	r3,r2
 1000b40:	d0e71415 	stw	r3,-25520(gp)
	         }

	         p = strchr(p, ',')+1;
 1000b44:	e13fef17 	ldw	r4,-68(fp)
 1000b48:	01400b04 	movi	r5,44
 1000b4c:	1004e440 	call	1004e44 <strchr>
 1000b50:	10800044 	addi	r2,r2,1
 1000b54:	e0bfef15 	stw	r2,-68(fp)
	         if (',' != *p)
 1000b58:	e0bfef17 	ldw	r2,-68(fp)
 1000b5c:	10800003 	ldbu	r2,0(r2)
 1000b60:	10803fcc 	andi	r2,r2,255
 1000b64:	1080201c 	xori	r2,r2,128
 1000b68:	10bfe004 	addi	r2,r2,-128
 1000b6c:	10800b20 	cmpeqi	r2,r2,44
 1000b70:	1000091e 	bne	r2,zero,1000b98 <parseData+0x87c>
	         {
	           altitude = atof(p);
 1000b74:	e13fef17 	ldw	r4,-68(fp)
 1000b78:	1004c040 	call	1004c04 <atof>
 1000b7c:	100b883a 	mov	r5,r2
 1000b80:	180d883a 	mov	r6,r3
 1000b84:	2809883a 	mov	r4,r5
 1000b88:	300b883a 	mov	r5,r6
 1000b8c:	10048dc0 	call	10048dc <__truncdfsf2>
 1000b90:	1007883a 	mov	r3,r2
 1000b94:	d0e70415 	stw	r3,-25584(gp)
	         }

	         p = strchr(p, ',')+1;
 1000b98:	e13fef17 	ldw	r4,-68(fp)
 1000b9c:	01400b04 	movi	r5,44
 1000ba0:	1004e440 	call	1004e44 <strchr>
 1000ba4:	10800044 	addi	r2,r2,1
 1000ba8:	e0bfef15 	stw	r2,-68(fp)
	         p = strchr(p, ',')+1;
 1000bac:	e13fef17 	ldw	r4,-68(fp)
 1000bb0:	01400b04 	movi	r5,44
 1000bb4:	1004e440 	call	1004e44 <strchr>
 1000bb8:	10800044 	addi	r2,r2,1
 1000bbc:	e0bfef15 	stw	r2,-68(fp)
	         if (',' != *p)
 1000bc0:	e0bfef17 	ldw	r2,-68(fp)
 1000bc4:	10800003 	ldbu	r2,0(r2)
 1000bc8:	10803fcc 	andi	r2,r2,255
 1000bcc:	1080201c 	xori	r2,r2,128
 1000bd0:	10bfe004 	addi	r2,r2,-128
 1000bd4:	10800b20 	cmpeqi	r2,r2,44
 1000bd8:	1000091e 	bne	r2,zero,1000c00 <parseData+0x8e4>
	         {
	           geoidheight = atof(p);
 1000bdc:	e13fef17 	ldw	r4,-68(fp)
 1000be0:	1004c040 	call	1004c04 <atof>
 1000be4:	100b883a 	mov	r5,r2
 1000be8:	180d883a 	mov	r6,r3
 1000bec:	2809883a 	mov	r4,r5
 1000bf0:	300b883a 	mov	r5,r6
 1000bf4:	10048dc0 	call	10048dc <__truncdfsf2>
 1000bf8:	1007883a 	mov	r3,r2
 1000bfc:	d0e6f015 	stw	r3,-25664(gp)
	         }
	         return 1;
 1000c00:	00800044 	movi	r2,1
 1000c04:	0001fc06 	br	10013f8 <parseData+0x10dc>
	}


	if (strstr(data, "$GPRMC")) {
 1000c08:	e13ffe17 	ldw	r4,-8(fp)
 1000c0c:	014040b4 	movhi	r5,258
 1000c10:	29648f04 	addi	r5,r5,-28100
 1000c14:	100559c0 	call	100559c <strstr>
 1000c18:	1001f626 	beq	r2,zero,10013f4 <parseData+0x10d8>
	   // found RMC
	    char *p = data;
 1000c1c:	e0bffe17 	ldw	r2,-8(fp)
 1000c20:	e0bff015 	stw	r2,-64(fp)

	    // get time
	    p = strchr(p, ',')+1;
 1000c24:	e13ff017 	ldw	r4,-64(fp)
 1000c28:	01400b04 	movi	r5,44
 1000c2c:	1004e440 	call	1004e44 <strchr>
 1000c30:	10800044 	addi	r2,r2,1
 1000c34:	e0bff015 	stw	r2,-64(fp)
	    float timef = atof(p);
 1000c38:	e13ff017 	ldw	r4,-64(fp)
 1000c3c:	1004c040 	call	1004c04 <atof>
 1000c40:	100b883a 	mov	r5,r2
 1000c44:	180d883a 	mov	r6,r3
 1000c48:	2809883a 	mov	r4,r5
 1000c4c:	300b883a 	mov	r5,r6
 1000c50:	10048dc0 	call	10048dc <__truncdfsf2>
 1000c54:	1007883a 	mov	r3,r2
 1000c58:	e0fff615 	stw	r3,-40(fp)
	    int time = timef;
 1000c5c:	e13ff617 	ldw	r4,-40(fp)
 1000c60:	10035240 	call	1003524 <__fixsfsi>
 1000c64:	e0bff715 	stw	r2,-36(fp)
	    hour = time / 10000;
 1000c68:	e0fff717 	ldw	r3,-36(fp)
 1000c6c:	0089c404 	movi	r2,10000
 1000c70:	1885283a 	div	r2,r3,r2
 1000c74:	d0a6ff15 	stw	r2,-25604(gp)
	    minute = (time % 10000) / 100;
 1000c78:	e0bff717 	ldw	r2,-36(fp)
 1000c7c:	00c9c404 	movi	r3,10000
 1000c80:	10c7283a 	div	r3,r2,r3
 1000c84:	18c9c424 	muli	r3,r3,10000
 1000c88:	10c7c83a 	sub	r3,r2,r3
 1000c8c:	00801904 	movi	r2,100
 1000c90:	1885283a 	div	r2,r3,r2
 1000c94:	d0a6fa15 	stw	r2,-25624(gp)
	    seconds = (time % 100);
 1000c98:	e0bff717 	ldw	r2,-36(fp)
 1000c9c:	00c01904 	movi	r3,100
 1000ca0:	10c7283a 	div	r3,r2,r3
 1000ca4:	18c01924 	muli	r3,r3,100
 1000ca8:	10c5c83a 	sub	r2,r2,r3
 1000cac:	d0a70715 	stw	r2,-25572(gp)

	    milliseconds = fmod(timef, 1.0) * 1000;
 1000cb0:	e13ff617 	ldw	r4,-40(fp)
 1000cb4:	10047cc0 	call	10047cc <__extendsfdf2>
 1000cb8:	100b883a 	mov	r5,r2
 1000cbc:	180d883a 	mov	r6,r3
 1000cc0:	2809883a 	mov	r4,r5
 1000cc4:	300b883a 	mov	r5,r6
 1000cc8:	000d883a 	mov	r6,zero
 1000ccc:	01cffc34 	movhi	r7,16368
 1000cd0:	1001dd00 	call	1001dd0 <fmod>
 1000cd4:	100b883a 	mov	r5,r2
 1000cd8:	180d883a 	mov	r6,r3
 1000cdc:	2809883a 	mov	r4,r5
 1000ce0:	300b883a 	mov	r5,r6
 1000ce4:	000d883a 	mov	r6,zero
 1000ce8:	01d023f4 	movhi	r7,16527
 1000cec:	39d00004 	addi	r7,r7,16384
 1000cf0:	10040200 	call	1004020 <__muldf3>
 1000cf4:	1009883a 	mov	r4,r2
 1000cf8:	180b883a 	mov	r5,r3
 1000cfc:	2005883a 	mov	r2,r4
 1000d00:	2807883a 	mov	r3,r5
 1000d04:	1009883a 	mov	r4,r2
 1000d08:	180b883a 	mov	r5,r3
 1000d0c:	10047440 	call	1004744 <__fixdfsi>
 1000d10:	d0a6fd15 	stw	r2,-25612(gp)

	    p = strchr(p, ',')+1;
 1000d14:	e13ff017 	ldw	r4,-64(fp)
 1000d18:	01400b04 	movi	r5,44
 1000d1c:	1004e440 	call	1004e44 <strchr>
 1000d20:	10800044 	addi	r2,r2,1
 1000d24:	e0bff015 	stw	r2,-64(fp)
	    // Serial.println(p);
	    if (p[0] == 'A')
 1000d28:	e0bff017 	ldw	r2,-64(fp)
 1000d2c:	10800003 	ldbu	r2,0(r2)
 1000d30:	10803fcc 	andi	r2,r2,255
 1000d34:	1080201c 	xori	r2,r2,128
 1000d38:	10bfe004 	addi	r2,r2,-128
 1000d3c:	10801058 	cmpnei	r2,r2,65
 1000d40:	1000031e 	bne	r2,zero,1000d50 <parseData+0xa34>
	      fix = 1;
 1000d44:	00800044 	movi	r2,1
 1000d48:	d0a70915 	stw	r2,-25564(gp)
 1000d4c:	00000b06 	br	1000d7c <parseData+0xa60>
	    else if (p[0] == 'V')
 1000d50:	e0bff017 	ldw	r2,-64(fp)
 1000d54:	10800003 	ldbu	r2,0(r2)
 1000d58:	10803fcc 	andi	r2,r2,255
 1000d5c:	1080201c 	xori	r2,r2,128
 1000d60:	10bfe004 	addi	r2,r2,-128
 1000d64:	10801598 	cmpnei	r2,r2,86
 1000d68:	1000021e 	bne	r2,zero,1000d74 <parseData+0xa58>
	      fix = 0;
 1000d6c:	d0270915 	stw	zero,-25564(gp)
 1000d70:	00000206 	br	1000d7c <parseData+0xa60>
	    else
	      return 0;
 1000d74:	0005883a 	mov	r2,zero
 1000d78:	00019f06 	br	10013f8 <parseData+0x10dc>

	    // parse out latitude
	    p = strchr(p, ',')+1;
 1000d7c:	e13ff017 	ldw	r4,-64(fp)
 1000d80:	01400b04 	movi	r5,44
 1000d84:	1004e440 	call	1004e44 <strchr>
 1000d88:	10800044 	addi	r2,r2,1
 1000d8c:	e0bff015 	stw	r2,-64(fp)
	    if (',' != *p)
 1000d90:	e0bff017 	ldw	r2,-64(fp)
 1000d94:	10800003 	ldbu	r2,0(r2)
 1000d98:	10803fcc 	andi	r2,r2,255
 1000d9c:	1080201c 	xori	r2,r2,128
 1000da0:	10bfe004 	addi	r2,r2,-128
 1000da4:	10800b20 	cmpeqi	r2,r2,44
 1000da8:	1000651e 	bne	r2,zero,1000f40 <parseData+0xc24>
	    {
	      strncpy(degreebuff, p, 2);
 1000dac:	e0bffb04 	addi	r2,fp,-20
 1000db0:	1009883a 	mov	r4,r2
 1000db4:	e17ff017 	ldw	r5,-64(fp)
 1000db8:	01800084 	movi	r6,2
 1000dbc:	10050400 	call	1005040 <strncpy>
	      p += 2;
 1000dc0:	e0bff017 	ldw	r2,-64(fp)
 1000dc4:	10800084 	addi	r2,r2,2
 1000dc8:	e0bff015 	stw	r2,-64(fp)
	      degreebuff[2] = '\0';
 1000dcc:	e03ffb85 	stb	zero,-18(fp)
	      long degree = atol(degreebuff) * 10000000;
 1000dd0:	e0bffb04 	addi	r2,fp,-20
 1000dd4:	1009883a 	mov	r4,r2
 1000dd8:	1004c240 	call	1004c24 <atol>
 1000ddc:	1007883a 	mov	r3,r2
 1000de0:	00802674 	movhi	r2,153
 1000de4:	10a5a004 	addi	r2,r2,-27008
 1000de8:	1885383a 	mul	r2,r3,r2
 1000dec:	e0bff815 	stw	r2,-32(fp)
	      strncpy(degreebuff, p, 2); // minutes
 1000df0:	e0bffb04 	addi	r2,fp,-20
 1000df4:	1009883a 	mov	r4,r2
 1000df8:	e17ff017 	ldw	r5,-64(fp)
 1000dfc:	01800084 	movi	r6,2
 1000e00:	10050400 	call	1005040 <strncpy>
	      p += 3; // skip decimal point
 1000e04:	e0bff017 	ldw	r2,-64(fp)
 1000e08:	108000c4 	addi	r2,r2,3
 1000e0c:	e0bff015 	stw	r2,-64(fp)
	      strncpy(degreebuff + 2, p, 4);
 1000e10:	e0bffb04 	addi	r2,fp,-20
 1000e14:	10800084 	addi	r2,r2,2
 1000e18:	1009883a 	mov	r4,r2
 1000e1c:	e17ff017 	ldw	r5,-64(fp)
 1000e20:	01800104 	movi	r6,4
 1000e24:	10050400 	call	1005040 <strncpy>
	      degreebuff[6] = '\0';
 1000e28:	e03ffc85 	stb	zero,-14(fp)
	      long minutes = 50 * atol(degreebuff) / 3;
 1000e2c:	e0bffb04 	addi	r2,fp,-20
 1000e30:	1009883a 	mov	r4,r2
 1000e34:	1004c240 	call	1004c24 <atol>
 1000e38:	10c00ca4 	muli	r3,r2,50
 1000e3c:	008000c4 	movi	r2,3
 1000e40:	1885283a 	div	r2,r3,r2
 1000e44:	e0bff915 	stw	r2,-28(fp)
	      latitude_fixed = degree + minutes;
 1000e48:	e0fff817 	ldw	r3,-32(fp)
 1000e4c:	e0bff917 	ldw	r2,-28(fp)
 1000e50:	1885883a 	add	r2,r3,r2
 1000e54:	d0a6fc15 	stw	r2,-25616(gp)
	      latitude = degree / 100000 + minutes * 0.000006F;
 1000e58:	e0fff817 	ldw	r3,-32(fp)
 1000e5c:	008000b4 	movhi	r2,2
 1000e60:	10a1a804 	addi	r2,r2,-31072
 1000e64:	1885283a 	div	r2,r3,r2
 1000e68:	1009883a 	mov	r4,r2
 1000e6c:	100359c0 	call	100359c <__floatsisf>
 1000e70:	1021883a 	mov	r16,r2
 1000e74:	e13ff917 	ldw	r4,-28(fp)
 1000e78:	100359c0 	call	100359c <__floatsisf>
 1000e7c:	1007883a 	mov	r3,r2
 1000e80:	1809883a 	mov	r4,r3
 1000e84:	014db274 	movhi	r5,14025
 1000e88:	2954e704 	addi	r5,r5,21404
 1000e8c:	1002c040 	call	1002c04 <__mulsf3>
 1000e90:	1007883a 	mov	r3,r2
 1000e94:	1805883a 	mov	r2,r3
 1000e98:	8009883a 	mov	r4,r16
 1000e9c:	100b883a 	mov	r5,r2
 1000ea0:	10022d40 	call	10022d4 <__addsf3>
 1000ea4:	1007883a 	mov	r3,r2
 1000ea8:	1805883a 	mov	r2,r3
 1000eac:	d0a70f15 	stw	r2,-25540(gp)
	      latitudeDegrees = (latitude-100*(latitude/100))/60.0;
 1000eb0:	d4270f17 	ldw	r16,-25540(gp)
 1000eb4:	d0a70f17 	ldw	r2,-25540(gp)
 1000eb8:	1009883a 	mov	r4,r2
 1000ebc:	0150b234 	movhi	r5,17096
 1000ec0:	10027b40 	call	10027b4 <__divsf3>
 1000ec4:	1007883a 	mov	r3,r2
 1000ec8:	1805883a 	mov	r2,r3
 1000ecc:	1009883a 	mov	r4,r2
 1000ed0:	0150b234 	movhi	r5,17096
 1000ed4:	1002c040 	call	1002c04 <__mulsf3>
 1000ed8:	1007883a 	mov	r3,r2
 1000edc:	1805883a 	mov	r2,r3
 1000ee0:	8009883a 	mov	r4,r16
 1000ee4:	100b883a 	mov	r5,r2
 1000ee8:	10030280 	call	1003028 <__subsf3>
 1000eec:	1007883a 	mov	r3,r2
 1000ef0:	1805883a 	mov	r2,r3
 1000ef4:	1009883a 	mov	r4,r2
 1000ef8:	01509c34 	movhi	r5,17008
 1000efc:	10027b40 	call	10027b4 <__divsf3>
 1000f00:	1007883a 	mov	r3,r2
 1000f04:	1805883a 	mov	r2,r3
 1000f08:	d0a70c15 	stw	r2,-25552(gp)
	      latitudeDegrees += (latitude/100);
 1000f0c:	d0a70f17 	ldw	r2,-25540(gp)
 1000f10:	1009883a 	mov	r4,r2
 1000f14:	0150b234 	movhi	r5,17096
 1000f18:	10027b40 	call	10027b4 <__divsf3>
 1000f1c:	1009883a 	mov	r4,r2
 1000f20:	2007883a 	mov	r3,r4
 1000f24:	d0a70c17 	ldw	r2,-25552(gp)
 1000f28:	1809883a 	mov	r4,r3
 1000f2c:	100b883a 	mov	r5,r2
 1000f30:	10022d40 	call	10022d4 <__addsf3>
 1000f34:	1007883a 	mov	r3,r2
 1000f38:	1805883a 	mov	r2,r3
 1000f3c:	d0a70c15 	stw	r2,-25552(gp)
	    }

	    p = strchr(p, ',')+1;
 1000f40:	e13ff017 	ldw	r4,-64(fp)
 1000f44:	01400b04 	movi	r5,44
 1000f48:	1004e440 	call	1004e44 <strchr>
 1000f4c:	10800044 	addi	r2,r2,1
 1000f50:	e0bff015 	stw	r2,-64(fp)
	    if (',' != *p)
 1000f54:	e0bff017 	ldw	r2,-64(fp)
 1000f58:	10800003 	ldbu	r2,0(r2)
 1000f5c:	10803fcc 	andi	r2,r2,255
 1000f60:	1080201c 	xori	r2,r2,128
 1000f64:	10bfe004 	addi	r2,r2,-128
 1000f68:	10800b20 	cmpeqi	r2,r2,44
 1000f6c:	1000291e 	bne	r2,zero,1001014 <parseData+0xcf8>
	    {
	      if (p[0] == 'S') latitudeDegrees *= -1.0;
 1000f70:	e0bff017 	ldw	r2,-64(fp)
 1000f74:	10800003 	ldbu	r2,0(r2)
 1000f78:	10803fcc 	andi	r2,r2,255
 1000f7c:	1080201c 	xori	r2,r2,128
 1000f80:	10bfe004 	addi	r2,r2,-128
 1000f84:	108014d8 	cmpnei	r2,r2,83
 1000f88:	1000031e 	bne	r2,zero,1000f98 <parseData+0xc7c>
 1000f8c:	d0a70c17 	ldw	r2,-25552(gp)
 1000f90:	10a0003c 	xorhi	r2,r2,32768
 1000f94:	d0a70c15 	stw	r2,-25552(gp)
	      if (p[0] == 'N') lat = 'N';
 1000f98:	e0bff017 	ldw	r2,-64(fp)
 1000f9c:	10800003 	ldbu	r2,0(r2)
 1000fa0:	10803fcc 	andi	r2,r2,255
 1000fa4:	1080201c 	xori	r2,r2,128
 1000fa8:	10bfe004 	addi	r2,r2,-128
 1000fac:	10801398 	cmpnei	r2,r2,78
 1000fb0:	1000031e 	bne	r2,zero,1000fc0 <parseData+0xca4>
 1000fb4:	00801384 	movi	r2,78
 1000fb8:	d0a71505 	stb	r2,-25516(gp)
 1000fbc:	00001506 	br	1001014 <parseData+0xcf8>
	      else if (p[0] == 'S') lat = 'S';
 1000fc0:	e0bff017 	ldw	r2,-64(fp)
 1000fc4:	10800003 	ldbu	r2,0(r2)
 1000fc8:	10803fcc 	andi	r2,r2,255
 1000fcc:	1080201c 	xori	r2,r2,128
 1000fd0:	10bfe004 	addi	r2,r2,-128
 1000fd4:	108014d8 	cmpnei	r2,r2,83
 1000fd8:	1000031e 	bne	r2,zero,1000fe8 <parseData+0xccc>
 1000fdc:	008014c4 	movi	r2,83
 1000fe0:	d0a71505 	stb	r2,-25516(gp)
 1000fe4:	00000b06 	br	1001014 <parseData+0xcf8>
	      else if (p[0] == ',') lat = 0;
 1000fe8:	e0bff017 	ldw	r2,-64(fp)
 1000fec:	10800003 	ldbu	r2,0(r2)
 1000ff0:	10803fcc 	andi	r2,r2,255
 1000ff4:	1080201c 	xori	r2,r2,128
 1000ff8:	10bfe004 	addi	r2,r2,-128
 1000ffc:	10800b18 	cmpnei	r2,r2,44
 1001000:	1000021e 	bne	r2,zero,100100c <parseData+0xcf0>
 1001004:	d0271505 	stb	zero,-25516(gp)
 1001008:	00000206 	br	1001014 <parseData+0xcf8>
	      else return 0;
 100100c:	0005883a 	mov	r2,zero
 1001010:	0000f906 	br	10013f8 <parseData+0x10dc>
	    }

	    // parse out longitude
	    p = strchr(p, ',')+1;
 1001014:	e13ff017 	ldw	r4,-64(fp)
 1001018:	01400b04 	movi	r5,44
 100101c:	1004e440 	call	1004e44 <strchr>
 1001020:	10800044 	addi	r2,r2,1
 1001024:	e0bff015 	stw	r2,-64(fp)
	    if (',' != *p)
 1001028:	e0bff017 	ldw	r2,-64(fp)
 100102c:	10800003 	ldbu	r2,0(r2)
 1001030:	10803fcc 	andi	r2,r2,255
 1001034:	1080201c 	xori	r2,r2,128
 1001038:	10bfe004 	addi	r2,r2,-128
 100103c:	10800b20 	cmpeqi	r2,r2,44
 1001040:	1000651e 	bne	r2,zero,10011d8 <parseData+0xebc>
	    {
	      strncpy(degreebuff, p, 3);
 1001044:	e0bffb04 	addi	r2,fp,-20
 1001048:	1009883a 	mov	r4,r2
 100104c:	e17ff017 	ldw	r5,-64(fp)
 1001050:	018000c4 	movi	r6,3
 1001054:	10050400 	call	1005040 <strncpy>
	      p += 3;
 1001058:	e0bff017 	ldw	r2,-64(fp)
 100105c:	108000c4 	addi	r2,r2,3
 1001060:	e0bff015 	stw	r2,-64(fp)
	      degreebuff[3] = '\0';
 1001064:	e03ffbc5 	stb	zero,-17(fp)
	      degree = atol(degreebuff) * 10000000;
 1001068:	e0bffb04 	addi	r2,fp,-20
 100106c:	1009883a 	mov	r4,r2
 1001070:	1004c240 	call	1004c24 <atol>
 1001074:	1007883a 	mov	r3,r2
 1001078:	00802674 	movhi	r2,153
 100107c:	10a5a004 	addi	r2,r2,-27008
 1001080:	1885383a 	mul	r2,r3,r2
 1001084:	e0bff415 	stw	r2,-48(fp)
	      strncpy(degreebuff, p, 2); // minutes
 1001088:	e0bffb04 	addi	r2,fp,-20
 100108c:	1009883a 	mov	r4,r2
 1001090:	e17ff017 	ldw	r5,-64(fp)
 1001094:	01800084 	movi	r6,2
 1001098:	10050400 	call	1005040 <strncpy>
	      p += 3; // skip decimal point
 100109c:	e0bff017 	ldw	r2,-64(fp)
 10010a0:	108000c4 	addi	r2,r2,3
 10010a4:	e0bff015 	stw	r2,-64(fp)
	      strncpy(degreebuff + 2, p, 4);
 10010a8:	e0bffb04 	addi	r2,fp,-20
 10010ac:	10800084 	addi	r2,r2,2
 10010b0:	1009883a 	mov	r4,r2
 10010b4:	e17ff017 	ldw	r5,-64(fp)
 10010b8:	01800104 	movi	r6,4
 10010bc:	10050400 	call	1005040 <strncpy>
	      degreebuff[6] = '\0';
 10010c0:	e03ffc85 	stb	zero,-14(fp)
	      minutes = 50 * atol(degreebuff) / 3;
 10010c4:	e0bffb04 	addi	r2,fp,-20
 10010c8:	1009883a 	mov	r4,r2
 10010cc:	1004c240 	call	1004c24 <atol>
 10010d0:	10c00ca4 	muli	r3,r2,50
 10010d4:	008000c4 	movi	r2,3
 10010d8:	1885283a 	div	r2,r3,r2
 10010dc:	e0bff515 	stw	r2,-44(fp)
	      longitude_fixed = degree + minutes;
 10010e0:	e0fff417 	ldw	r3,-48(fp)
 10010e4:	e0bff517 	ldw	r2,-44(fp)
 10010e8:	1885883a 	add	r2,r3,r2
 10010ec:	d0a70515 	stw	r2,-25580(gp)
	      longitude = degree / 100000 + minutes * 0.000006F;
 10010f0:	e0fff417 	ldw	r3,-48(fp)
 10010f4:	008000b4 	movhi	r2,2
 10010f8:	10a1a804 	addi	r2,r2,-31072
 10010fc:	1885283a 	div	r2,r3,r2
 1001100:	1009883a 	mov	r4,r2
 1001104:	100359c0 	call	100359c <__floatsisf>
 1001108:	1021883a 	mov	r16,r2
 100110c:	e13ff517 	ldw	r4,-44(fp)
 1001110:	100359c0 	call	100359c <__floatsisf>
 1001114:	1007883a 	mov	r3,r2
 1001118:	1809883a 	mov	r4,r3
 100111c:	014db274 	movhi	r5,14025
 1001120:	2954e704 	addi	r5,r5,21404
 1001124:	1002c040 	call	1002c04 <__mulsf3>
 1001128:	1007883a 	mov	r3,r2
 100112c:	1805883a 	mov	r2,r3
 1001130:	8009883a 	mov	r4,r16
 1001134:	100b883a 	mov	r5,r2
 1001138:	10022d40 	call	10022d4 <__addsf3>
 100113c:	1007883a 	mov	r3,r2
 1001140:	1805883a 	mov	r2,r3
 1001144:	d0a70215 	stw	r2,-25592(gp)
	      longitudeDegrees = (longitude-100*(longitude/100))/60.0;
 1001148:	d4270217 	ldw	r16,-25592(gp)
 100114c:	d0a70217 	ldw	r2,-25592(gp)
 1001150:	1009883a 	mov	r4,r2
 1001154:	0150b234 	movhi	r5,17096
 1001158:	10027b40 	call	10027b4 <__divsf3>
 100115c:	1007883a 	mov	r3,r2
 1001160:	1805883a 	mov	r2,r3
 1001164:	1009883a 	mov	r4,r2
 1001168:	0150b234 	movhi	r5,17096
 100116c:	1002c040 	call	1002c04 <__mulsf3>
 1001170:	1007883a 	mov	r3,r2
 1001174:	1805883a 	mov	r2,r3
 1001178:	8009883a 	mov	r4,r16
 100117c:	100b883a 	mov	r5,r2
 1001180:	10030280 	call	1003028 <__subsf3>
 1001184:	1007883a 	mov	r3,r2
 1001188:	1805883a 	mov	r2,r3
 100118c:	1009883a 	mov	r4,r2
 1001190:	01509c34 	movhi	r5,17008
 1001194:	10027b40 	call	10027b4 <__divsf3>
 1001198:	1007883a 	mov	r3,r2
 100119c:	1805883a 	mov	r2,r3
 10011a0:	d0a70a15 	stw	r2,-25560(gp)
	      longitudeDegrees += (longitude/100);
 10011a4:	d0a70217 	ldw	r2,-25592(gp)
 10011a8:	1009883a 	mov	r4,r2
 10011ac:	0150b234 	movhi	r5,17096
 10011b0:	10027b40 	call	10027b4 <__divsf3>
 10011b4:	1009883a 	mov	r4,r2
 10011b8:	2007883a 	mov	r3,r4
 10011bc:	d0a70a17 	ldw	r2,-25560(gp)
 10011c0:	1809883a 	mov	r4,r3
 10011c4:	100b883a 	mov	r5,r2
 10011c8:	10022d40 	call	10022d4 <__addsf3>
 10011cc:	1007883a 	mov	r3,r2
 10011d0:	1805883a 	mov	r2,r3
 10011d4:	d0a70a15 	stw	r2,-25560(gp)
	    }

	    p = strchr(p, ',')+1;
 10011d8:	e13ff017 	ldw	r4,-64(fp)
 10011dc:	01400b04 	movi	r5,44
 10011e0:	1004e440 	call	1004e44 <strchr>
 10011e4:	10800044 	addi	r2,r2,1
 10011e8:	e0bff015 	stw	r2,-64(fp)
	    if (',' != *p)
 10011ec:	e0bff017 	ldw	r2,-64(fp)
 10011f0:	10800003 	ldbu	r2,0(r2)
 10011f4:	10803fcc 	andi	r2,r2,255
 10011f8:	1080201c 	xori	r2,r2,128
 10011fc:	10bfe004 	addi	r2,r2,-128
 1001200:	10800b20 	cmpeqi	r2,r2,44
 1001204:	1000291e 	bne	r2,zero,10012ac <parseData+0xf90>
	    {
	      if (p[0] == 'W') longitudeDegrees *= -1.0;
 1001208:	e0bff017 	ldw	r2,-64(fp)
 100120c:	10800003 	ldbu	r2,0(r2)
 1001210:	10803fcc 	andi	r2,r2,255
 1001214:	1080201c 	xori	r2,r2,128
 1001218:	10bfe004 	addi	r2,r2,-128
 100121c:	108015d8 	cmpnei	r2,r2,87
 1001220:	1000031e 	bne	r2,zero,1001230 <parseData+0xf14>
 1001224:	d0a70a17 	ldw	r2,-25560(gp)
 1001228:	10a0003c 	xorhi	r2,r2,32768
 100122c:	d0a70a15 	stw	r2,-25560(gp)
	      if (p[0] == 'W') lon = 'W';
 1001230:	e0bff017 	ldw	r2,-64(fp)
 1001234:	10800003 	ldbu	r2,0(r2)
 1001238:	10803fcc 	andi	r2,r2,255
 100123c:	1080201c 	xori	r2,r2,128
 1001240:	10bfe004 	addi	r2,r2,-128
 1001244:	108015d8 	cmpnei	r2,r2,87
 1001248:	1000031e 	bne	r2,zero,1001258 <parseData+0xf3c>
 100124c:	008015c4 	movi	r2,87
 1001250:	d0a70105 	stb	r2,-25596(gp)
 1001254:	00001506 	br	10012ac <parseData+0xf90>
	      else if (p[0] == 'E') lon = 'E';
 1001258:	e0bff017 	ldw	r2,-64(fp)
 100125c:	10800003 	ldbu	r2,0(r2)
 1001260:	10803fcc 	andi	r2,r2,255
 1001264:	1080201c 	xori	r2,r2,128
 1001268:	10bfe004 	addi	r2,r2,-128
 100126c:	10801158 	cmpnei	r2,r2,69
 1001270:	1000031e 	bne	r2,zero,1001280 <parseData+0xf64>
 1001274:	00801144 	movi	r2,69
 1001278:	d0a70105 	stb	r2,-25596(gp)
 100127c:	00000b06 	br	10012ac <parseData+0xf90>
	      else if (p[0] == ',') lon = 0;
 1001280:	e0bff017 	ldw	r2,-64(fp)
 1001284:	10800003 	ldbu	r2,0(r2)
 1001288:	10803fcc 	andi	r2,r2,255
 100128c:	1080201c 	xori	r2,r2,128
 1001290:	10bfe004 	addi	r2,r2,-128
 1001294:	10800b18 	cmpnei	r2,r2,44
 1001298:	1000021e 	bne	r2,zero,10012a4 <parseData+0xf88>
 100129c:	d0270105 	stb	zero,-25596(gp)
 10012a0:	00000206 	br	10012ac <parseData+0xf90>
	      else return 0;
 10012a4:	0005883a 	mov	r2,zero
 10012a8:	00005306 	br	10013f8 <parseData+0x10dc>
	    }
	    // speed
	    p = strchr(p, ',')+1;
 10012ac:	e13ff017 	ldw	r4,-64(fp)
 10012b0:	01400b04 	movi	r5,44
 10012b4:	1004e440 	call	1004e44 <strchr>
 10012b8:	10800044 	addi	r2,r2,1
 10012bc:	e0bff015 	stw	r2,-64(fp)
	    if (',' != *p)
 10012c0:	e0bff017 	ldw	r2,-64(fp)
 10012c4:	10800003 	ldbu	r2,0(r2)
 10012c8:	10803fcc 	andi	r2,r2,255
 10012cc:	1080201c 	xori	r2,r2,128
 10012d0:	10bfe004 	addi	r2,r2,-128
 10012d4:	10800b20 	cmpeqi	r2,r2,44
 10012d8:	1000091e 	bne	r2,zero,1001300 <parseData+0xfe4>
	    {
	      speed = atof(p);
 10012dc:	e13ff017 	ldw	r4,-64(fp)
 10012e0:	1004c040 	call	1004c04 <atof>
 10012e4:	100b883a 	mov	r5,r2
 10012e8:	180d883a 	mov	r6,r3
 10012ec:	2809883a 	mov	r4,r5
 10012f0:	300b883a 	mov	r5,r6
 10012f4:	10048dc0 	call	10048dc <__truncdfsf2>
 10012f8:	1007883a 	mov	r3,r2
 10012fc:	d0e71215 	stw	r3,-25528(gp)
	    }

	    // angle
	    p = strchr(p, ',')+1;
 1001300:	e13ff017 	ldw	r4,-64(fp)
 1001304:	01400b04 	movi	r5,44
 1001308:	1004e440 	call	1004e44 <strchr>
 100130c:	10800044 	addi	r2,r2,1
 1001310:	e0bff015 	stw	r2,-64(fp)
	    if (',' != *p)
 1001314:	e0bff017 	ldw	r2,-64(fp)
 1001318:	10800003 	ldbu	r2,0(r2)
 100131c:	10803fcc 	andi	r2,r2,255
 1001320:	1080201c 	xori	r2,r2,128
 1001324:	10bfe004 	addi	r2,r2,-128
 1001328:	10800b20 	cmpeqi	r2,r2,44
 100132c:	1000091e 	bne	r2,zero,1001354 <parseData+0x1038>
	    {
	      angle = atof(p);
 1001330:	e13ff017 	ldw	r4,-64(fp)
 1001334:	1004c040 	call	1004c04 <atof>
 1001338:	100b883a 	mov	r5,r2
 100133c:	180d883a 	mov	r6,r3
 1001340:	2809883a 	mov	r4,r5
 1001344:	300b883a 	mov	r5,r6
 1001348:	10048dc0 	call	10048dc <__truncdfsf2>
 100134c:	1007883a 	mov	r3,r2
 1001350:	d0e70015 	stw	r3,-25600(gp)
	    }

	    p = strchr(p, ',')+1;
 1001354:	e13ff017 	ldw	r4,-64(fp)
 1001358:	01400b04 	movi	r5,44
 100135c:	1004e440 	call	1004e44 <strchr>
 1001360:	10800044 	addi	r2,r2,1
 1001364:	e0bff015 	stw	r2,-64(fp)
	    if (',' != *p)
 1001368:	e0bff017 	ldw	r2,-64(fp)
 100136c:	10800003 	ldbu	r2,0(r2)
 1001370:	10803fcc 	andi	r2,r2,255
 1001374:	1080201c 	xori	r2,r2,128
 1001378:	10bfe004 	addi	r2,r2,-128
 100137c:	10800b20 	cmpeqi	r2,r2,44
 1001380:	10001a1e 	bne	r2,zero,10013ec <parseData+0x10d0>
	    {
	      int fulldate = atof(p);
 1001384:	e13ff017 	ldw	r4,-64(fp)
 1001388:	1004c040 	call	1004c04 <atof>
 100138c:	100b883a 	mov	r5,r2
 1001390:	180d883a 	mov	r6,r3
 1001394:	2809883a 	mov	r4,r5
 1001398:	300b883a 	mov	r5,r6
 100139c:	10047440 	call	1004744 <__fixdfsi>
 10013a0:	e0bffa15 	stw	r2,-24(fp)
	      day = fulldate / 10000;
 10013a4:	e0fffa17 	ldw	r3,-24(fp)
 10013a8:	0089c404 	movi	r2,10000
 10013ac:	1885283a 	div	r2,r3,r2
 10013b0:	d0a71015 	stw	r2,-25536(gp)
	      month = (fulldate % 10000) / 100;
 10013b4:	e0bffa17 	ldw	r2,-24(fp)
 10013b8:	00c9c404 	movi	r3,10000
 10013bc:	10c7283a 	div	r3,r2,r3
 10013c0:	18c9c424 	muli	r3,r3,10000
 10013c4:	10c7c83a 	sub	r3,r2,r3
 10013c8:	00801904 	movi	r2,100
 10013cc:	1885283a 	div	r2,r3,r2
 10013d0:	d0a6f815 	stw	r2,-25632(gp)
	      year = (fulldate % 100);
 10013d4:	e0bffa17 	ldw	r2,-24(fp)
 10013d8:	00c01904 	movi	r3,100
 10013dc:	10c7283a 	div	r3,r2,r3
 10013e0:	18c01924 	muli	r3,r3,100
 10013e4:	10c5c83a 	sub	r2,r2,r3
 10013e8:	d0a70d15 	stw	r2,-25548(gp)
	    }
	    // we dont parse the remaining, yet!
	    return 1;
 10013ec:	00800044 	movi	r2,1
 10013f0:	00000106 	br	10013f8 <parseData+0x10dc>
	  }

	return 0;
 10013f4:	0005883a 	mov	r2,zero
}
 10013f8:	e6ffff04 	addi	sp,fp,-4
 10013fc:	dfc00217 	ldw	ra,8(sp)
 1001400:	df000117 	ldw	fp,4(sp)
 1001404:	dc000017 	ldw	r16,0(sp)
 1001408:	dec00304 	addi	sp,sp,12
 100140c:	f800283a 	ret

01001410 <parseHex>:


int parseHex(char c){
 1001410:	defffb04 	addi	sp,sp,-20
 1001414:	df000415 	stw	fp,16(sp)
 1001418:	df000404 	addi	fp,sp,16
 100141c:	2005883a 	mov	r2,r4
 1001420:	e0bfff05 	stb	r2,-4(fp)

	if(c < '0')
 1001424:	e0bfff07 	ldb	r2,-4(fp)
 1001428:	10800c08 	cmpgei	r2,r2,48
 100142c:	1000021e 	bne	r2,zero,1001438 <parseHex+0x28>
		return 0;
 1001430:	0005883a 	mov	r2,zero
 1001434:	00001906 	br	100149c <parseHex+0x8c>
	if(c <= '9')
 1001438:	e0bfff07 	ldb	r2,-4(fp)
 100143c:	10800e88 	cmpgei	r2,r2,58
 1001440:	1000051e 	bne	r2,zero,1001458 <parseHex+0x48>
	{
		int i = c - '0';
 1001444:	e0bfff07 	ldb	r2,-4(fp)
 1001448:	10bff404 	addi	r2,r2,-48
 100144c:	e0bffc15 	stw	r2,-16(fp)
		return i;
 1001450:	e0bffc17 	ldw	r2,-16(fp)
 1001454:	00001106 	br	100149c <parseHex+0x8c>
	}
	if(c < 'A')
 1001458:	e0bfff07 	ldb	r2,-4(fp)
 100145c:	10801048 	cmpgei	r2,r2,65
 1001460:	1000021e 	bne	r2,zero,100146c <parseHex+0x5c>
		return 0;
 1001464:	0005883a 	mov	r2,zero
 1001468:	00000c06 	br	100149c <parseHex+0x8c>
	if(c <= 'F') {
 100146c:	e0bfff07 	ldb	r2,-4(fp)
 1001470:	108011c8 	cmpgei	r2,r2,71
 1001474:	1000081e 	bne	r2,zero,1001498 <parseHex+0x88>
		int i = c - 'A';
 1001478:	e0bfff07 	ldb	r2,-4(fp)
 100147c:	10bfefc4 	addi	r2,r2,-65
 1001480:	e0bffd15 	stw	r2,-12(fp)
		int j = i + 10;
 1001484:	e0bffd17 	ldw	r2,-12(fp)
 1001488:	10800284 	addi	r2,r2,10
 100148c:	e0bffe15 	stw	r2,-8(fp)
		return j;
 1001490:	e0bffe17 	ldw	r2,-8(fp)
 1001494:	00000106 	br	100149c <parseHex+0x8c>

	}
	return 0;
 1001498:	0005883a 	mov	r2,zero

}
 100149c:	e037883a 	mov	sp,fp
 10014a0:	df000017 	ldw	fp,0(sp)
 10014a4:	dec00104 	addi	sp,sp,4
 10014a8:	f800283a 	ret

010014ac <waitForSentence>:


int waitForSentence(const char *data) {
 10014ac:	defff604 	addi	sp,sp,-40
 10014b0:	dfc00915 	stw	ra,36(sp)
 10014b4:	df000815 	stw	fp,32(sp)
 10014b8:	df000804 	addi	fp,sp,32
 10014bc:	e13fff15 	stw	r4,-4(fp)
	  char str[20];

	  int i=0;
 10014c0:	e03ff815 	stw	zero,-32(fp)
	  while (i < MAXLINELENGTH) {
 10014c4:	00001506 	br	100151c <waitForSentence+0x70>
	    if (newNMEAreceived() == 1) {
 10014c8:	10015400 	call	1001540 <newNMEAreceived>
 10014cc:	10800058 	cmpnei	r2,r2,1
 10014d0:	1000121e 	bne	r2,zero,100151c <waitForSentence+0x70>
	      char *nmea = lastNMEA();
 10014d4:	10015600 	call	1001560 <lastNMEA>
 10014d8:	e0bff915 	stw	r2,-28(fp)
	      strncpy(str, nmea, 20);
 10014dc:	e0bffa04 	addi	r2,fp,-24
 10014e0:	1009883a 	mov	r4,r2
 10014e4:	e17ff917 	ldw	r5,-28(fp)
 10014e8:	01800504 	movi	r6,20
 10014ec:	10050400 	call	1005040 <strncpy>
	      str[19] = 0;
 10014f0:	e03ffec5 	stb	zero,-5(fp)
	      i++;
 10014f4:	e0bff817 	ldw	r2,-32(fp)
 10014f8:	10800044 	addi	r2,r2,1
 10014fc:	e0bff815 	stw	r2,-32(fp)

	      if (strstr(str, data))
 1001500:	e0bffa04 	addi	r2,fp,-24
 1001504:	1009883a 	mov	r4,r2
 1001508:	e17fff17 	ldw	r5,-4(fp)
 100150c:	100559c0 	call	100559c <strstr>
 1001510:	10000226 	beq	r2,zero,100151c <waitForSentence+0x70>
		return 1;
 1001514:	00800044 	movi	r2,1
 1001518:	00000406 	br	100152c <waitForSentence+0x80>

int waitForSentence(const char *data) {
	  char str[20];

	  int i=0;
	  while (i < MAXLINELENGTH) {
 100151c:	e0bff817 	ldw	r2,-32(fp)
 1001520:	10801e10 	cmplti	r2,r2,120
 1001524:	103fe81e 	bne	r2,zero,10014c8 <__alt_data_end+0xff8014c8>
	      if (strstr(str, data))
		return 1;
	    }
	  }

	  return 0;
 1001528:	0005883a 	mov	r2,zero
}
 100152c:	e037883a 	mov	sp,fp
 1001530:	dfc00117 	ldw	ra,4(sp)
 1001534:	df000017 	ldw	fp,0(sp)
 1001538:	dec00204 	addi	sp,sp,8
 100153c:	f800283a 	ret

01001540 <newNMEAreceived>:

int newNMEAreceived(void) {
 1001540:	deffff04 	addi	sp,sp,-4
 1001544:	df000015 	stw	fp,0(sp)
 1001548:	d839883a 	mov	fp,sp
  return receivedFlag;
 100154c:	d0a6fe17 	ldw	r2,-25608(gp)
}
 1001550:	e037883a 	mov	sp,fp
 1001554:	df000017 	ldw	fp,0(sp)
 1001558:	dec00104 	addi	sp,sp,4
 100155c:	f800283a 	ret

01001560 <lastNMEA>:



char* lastNMEA(void) {
 1001560:	deffff04 	addi	sp,sp,-4
 1001564:	df000015 	stw	fp,0(sp)
 1001568:	d839883a 	mov	fp,sp
  receivedFlag = 0;
 100156c:	d026fe15 	stw	zero,-25608(gp)
  return (char *)lastline;
 1001570:	d0a6f317 	ldw	r2,-25652(gp)
}
 1001574:	e037883a 	mov	sp,fp
 1001578:	df000017 	ldw	fp,0(sp)
 100157c:	dec00104 	addi	sp,sp,4
 1001580:	f800283a 	ret

01001584 <LOCUS_StartLogger>:

int LOCUS_StartLogger(void) {
 1001584:	defffe04 	addi	sp,sp,-8
 1001588:	dfc00115 	stw	ra,4(sp)
 100158c:	df000015 	stw	fp,0(sp)
 1001590:	d839883a 	mov	fp,sp
  sendCommand(PMTK_LOCUS_STARTLOG);
 1001594:	010040b4 	movhi	r4,258
 1001598:	21249104 	addi	r4,r4,-28092
 100159c:	1001ad00 	call	1001ad0 <sendCommand>
  receivedFlag = 0;
 10015a0:	d026fe15 	stw	zero,-25608(gp)
  return waitForSentence(PMTK_LOCUS_STARTSTOPACK);
 10015a4:	010040b4 	movhi	r4,258
 10015a8:	21249504 	addi	r4,r4,-28076
 10015ac:	10014ac0 	call	10014ac <waitForSentence>
}
 10015b0:	e037883a 	mov	sp,fp
 10015b4:	dfc00117 	ldw	ra,4(sp)
 10015b8:	df000017 	ldw	fp,0(sp)
 10015bc:	dec00204 	addi	sp,sp,8
 10015c0:	f800283a 	ret

010015c4 <LOCUS_StopLogger>:

int LOCUS_StopLogger(void) {
 10015c4:	defffe04 	addi	sp,sp,-8
 10015c8:	dfc00115 	stw	ra,4(sp)
 10015cc:	df000015 	stw	fp,0(sp)
 10015d0:	d839883a 	mov	fp,sp
  sendCommand(PMTK_LOCUS_STOPLOG);
 10015d4:	010040b4 	movhi	r4,258
 10015d8:	21249a04 	addi	r4,r4,-28056
 10015dc:	1001ad00 	call	1001ad0 <sendCommand>
  receivedFlag = 0;
 10015e0:	d026fe15 	stw	zero,-25608(gp)
  return waitForSentence(PMTK_LOCUS_STARTSTOPACK);
 10015e4:	010040b4 	movhi	r4,258
 10015e8:	21249504 	addi	r4,r4,-28076
 10015ec:	10014ac0 	call	10014ac <waitForSentence>
}
 10015f0:	e037883a 	mov	sp,fp
 10015f4:	dfc00117 	ldw	ra,4(sp)
 10015f8:	df000017 	ldw	fp,0(sp)
 10015fc:	dec00204 	addi	sp,sp,8
 1001600:	f800283a 	ret

01001604 <LOCUS_ReadStatus>:

int LOCUS_ReadStatus(void) {
 1001604:	defff104 	addi	sp,sp,-60
 1001608:	dfc00e15 	stw	ra,56(sp)
 100160c:	df000d15 	stw	fp,52(sp)
 1001610:	df000d04 	addi	fp,sp,52
  sendCommand(PMTK_LOCUS_QUERY_STATUS);
 1001614:	010040b4 	movhi	r4,258
 1001618:	21249e04 	addi	r4,r4,-28040
 100161c:	1001ad00 	call	1001ad0 <sendCommand>

  if (! waitForSentence("$PMTKLOG"))
 1001620:	010040b4 	movhi	r4,258
 1001624:	2124a104 	addi	r4,r4,-28028
 1001628:	10014ac0 	call	10014ac <waitForSentence>
 100162c:	1000021e 	bne	r2,zero,1001638 <LOCUS_ReadStatus+0x34>
    return 0;
 1001630:	0005883a 	mov	r2,zero
 1001634:	0000ac06 	br	10018e8 <LOCUS_ReadStatus+0x2e4>

  char *response = lastNMEA();
 1001638:	10015600 	call	1001560 <lastNMEA>
 100163c:	e0bff315 	stw	r2,-52(fp)
  int parsed[10];
  int i;

  for (i=0; i<10; i++) parsed[i] = -1;
 1001640:	e03ff415 	stw	zero,-48(fp)
 1001644:	00000b06 	br	1001674 <LOCUS_ReadStatus+0x70>
 1001648:	e0bff417 	ldw	r2,-48(fp)
 100164c:	1085883a 	add	r2,r2,r2
 1001650:	1085883a 	add	r2,r2,r2
 1001654:	e0fff304 	addi	r3,fp,-52
 1001658:	1885883a 	add	r2,r3,r2
 100165c:	10800304 	addi	r2,r2,12
 1001660:	00ffffc4 	movi	r3,-1
 1001664:	10c00015 	stw	r3,0(r2)
 1001668:	e0bff417 	ldw	r2,-48(fp)
 100166c:	10800044 	addi	r2,r2,1
 1001670:	e0bff415 	stw	r2,-48(fp)
 1001674:	e0bff417 	ldw	r2,-48(fp)
 1001678:	10800290 	cmplti	r2,r2,10
 100167c:	103ff21e 	bne	r2,zero,1001648 <__alt_data_end+0xff801648>

  response = strchr(response, ',');
 1001680:	e13ff317 	ldw	r4,-52(fp)
 1001684:	01400b04 	movi	r5,44
 1001688:	1004e440 	call	1004e44 <strchr>
 100168c:	e0bff315 	stw	r2,-52(fp)
  for (i=0; i<10; i++) {
 1001690:	e03ff415 	stw	zero,-48(fp)
 1001694:	00006d06 	br	100184c <LOCUS_ReadStatus+0x248>
    if (!response || (response[0] == 0) || (response[0] == '*'))
 1001698:	e0bff317 	ldw	r2,-52(fp)
 100169c:	10006e26 	beq	r2,zero,1001858 <LOCUS_ReadStatus+0x254>
 10016a0:	e0bff317 	ldw	r2,-52(fp)
 10016a4:	10800003 	ldbu	r2,0(r2)
 10016a8:	10803fcc 	andi	r2,r2,255
 10016ac:	1080201c 	xori	r2,r2,128
 10016b0:	10bfe004 	addi	r2,r2,-128
 10016b4:	10006826 	beq	r2,zero,1001858 <LOCUS_ReadStatus+0x254>
 10016b8:	e0bff317 	ldw	r2,-52(fp)
 10016bc:	10800003 	ldbu	r2,0(r2)
 10016c0:	10803fcc 	andi	r2,r2,255
 10016c4:	1080201c 	xori	r2,r2,128
 10016c8:	10bfe004 	addi	r2,r2,-128
 10016cc:	10800aa0 	cmpeqi	r2,r2,42
 10016d0:	1000611e 	bne	r2,zero,1001858 <LOCUS_ReadStatus+0x254>
      break;
    response++;
 10016d4:	e0bff317 	ldw	r2,-52(fp)
 10016d8:	10800044 	addi	r2,r2,1
 10016dc:	e0bff315 	stw	r2,-52(fp)
    parsed[i]=0;
 10016e0:	e0bff417 	ldw	r2,-48(fp)
 10016e4:	1085883a 	add	r2,r2,r2
 10016e8:	1085883a 	add	r2,r2,r2
 10016ec:	e13ff304 	addi	r4,fp,-52
 10016f0:	2085883a 	add	r2,r4,r2
 10016f4:	10800304 	addi	r2,r2,12
 10016f8:	10000015 	stw	zero,0(r2)
    while ((response[0] != ',') &&
 10016fc:	00003c06 	br	10017f0 <LOCUS_ReadStatus+0x1ec>
	   (response[0] != '*') && (response[0] != 0)) {
      parsed[i] *= 10;
 1001700:	e0bff417 	ldw	r2,-48(fp)
 1001704:	1085883a 	add	r2,r2,r2
 1001708:	1085883a 	add	r2,r2,r2
 100170c:	e0fff304 	addi	r3,fp,-52
 1001710:	1885883a 	add	r2,r3,r2
 1001714:	10800304 	addi	r2,r2,12
 1001718:	10800017 	ldw	r2,0(r2)
 100171c:	10c002a4 	muli	r3,r2,10
 1001720:	e0bff417 	ldw	r2,-48(fp)
 1001724:	1085883a 	add	r2,r2,r2
 1001728:	1085883a 	add	r2,r2,r2
 100172c:	e13ff304 	addi	r4,fp,-52
 1001730:	2085883a 	add	r2,r4,r2
 1001734:	10800304 	addi	r2,r2,12
 1001738:	10c00015 	stw	r3,0(r2)
      int c = response[0];
 100173c:	e0bff317 	ldw	r2,-52(fp)
 1001740:	10800003 	ldbu	r2,0(r2)
 1001744:	10803fcc 	andi	r2,r2,255
 1001748:	1080201c 	xori	r2,r2,128
 100174c:	10bfe004 	addi	r2,r2,-128
 1001750:	e0bff515 	stw	r2,-44(fp)
      if (isdigit(c))
 1001754:	008040b4 	movhi	r2,258
 1001758:	10ad3604 	addi	r2,r2,-19240
 100175c:	10c00017 	ldw	r3,0(r2)
 1001760:	e0bff517 	ldw	r2,-44(fp)
 1001764:	10800044 	addi	r2,r2,1
 1001768:	1885883a 	add	r2,r3,r2
 100176c:	10800003 	ldbu	r2,0(r2)
 1001770:	10803fcc 	andi	r2,r2,255
 1001774:	1080010c 	andi	r2,r2,4
 1001778:	10001226 	beq	r2,zero,10017c4 <LOCUS_ReadStatus+0x1c0>
        parsed[i] += c - '0';
 100177c:	e0bff417 	ldw	r2,-48(fp)
 1001780:	1085883a 	add	r2,r2,r2
 1001784:	1085883a 	add	r2,r2,r2
 1001788:	e0fff304 	addi	r3,fp,-52
 100178c:	1885883a 	add	r2,r3,r2
 1001790:	10800304 	addi	r2,r2,12
 1001794:	10c00017 	ldw	r3,0(r2)
 1001798:	e0bff517 	ldw	r2,-44(fp)
 100179c:	10bff404 	addi	r2,r2,-48
 10017a0:	1887883a 	add	r3,r3,r2
 10017a4:	e0bff417 	ldw	r2,-48(fp)
 10017a8:	1085883a 	add	r2,r2,r2
 10017ac:	1085883a 	add	r2,r2,r2
 10017b0:	e13ff304 	addi	r4,fp,-52
 10017b4:	2085883a 	add	r2,r4,r2
 10017b8:	10800304 	addi	r2,r2,12
 10017bc:	10c00015 	stw	r3,0(r2)
 10017c0:	00000806 	br	10017e4 <LOCUS_ReadStatus+0x1e0>
      else
        parsed[i] = c;
 10017c4:	e0bff417 	ldw	r2,-48(fp)
 10017c8:	1085883a 	add	r2,r2,r2
 10017cc:	1085883a 	add	r2,r2,r2
 10017d0:	e0fff304 	addi	r3,fp,-52
 10017d4:	1885883a 	add	r2,r3,r2
 10017d8:	10800304 	addi	r2,r2,12
 10017dc:	e0fff517 	ldw	r3,-44(fp)
 10017e0:	10c00015 	stw	r3,0(r2)
      response++;
 10017e4:	e0bff317 	ldw	r2,-52(fp)
 10017e8:	10800044 	addi	r2,r2,1
 10017ec:	e0bff315 	stw	r2,-52(fp)
  for (i=0; i<10; i++) {
    if (!response || (response[0] == 0) || (response[0] == '*'))
      break;
    response++;
    parsed[i]=0;
    while ((response[0] != ',') &&
 10017f0:	e0bff317 	ldw	r2,-52(fp)
 10017f4:	10800003 	ldbu	r2,0(r2)
 10017f8:	10803fcc 	andi	r2,r2,255
 10017fc:	1080201c 	xori	r2,r2,128
 1001800:	10bfe004 	addi	r2,r2,-128
 1001804:	10800b20 	cmpeqi	r2,r2,44
 1001808:	10000d1e 	bne	r2,zero,1001840 <LOCUS_ReadStatus+0x23c>
	   (response[0] != '*') && (response[0] != 0)) {
 100180c:	e0bff317 	ldw	r2,-52(fp)
 1001810:	10800003 	ldbu	r2,0(r2)
  for (i=0; i<10; i++) {
    if (!response || (response[0] == 0) || (response[0] == '*'))
      break;
    response++;
    parsed[i]=0;
    while ((response[0] != ',') &&
 1001814:	10803fcc 	andi	r2,r2,255
 1001818:	1080201c 	xori	r2,r2,128
 100181c:	10bfe004 	addi	r2,r2,-128
 1001820:	10800aa0 	cmpeqi	r2,r2,42
 1001824:	1000061e 	bne	r2,zero,1001840 <LOCUS_ReadStatus+0x23c>
	   (response[0] != '*') && (response[0] != 0)) {
 1001828:	e0bff317 	ldw	r2,-52(fp)
 100182c:	10800003 	ldbu	r2,0(r2)
 1001830:	10803fcc 	andi	r2,r2,255
 1001834:	1080201c 	xori	r2,r2,128
 1001838:	10bfe004 	addi	r2,r2,-128
 100183c:	103fb01e 	bne	r2,zero,1001700 <__alt_data_end+0xff801700>
  int i;

  for (i=0; i<10; i++) parsed[i] = -1;

  response = strchr(response, ',');
  for (i=0; i<10; i++) {
 1001840:	e0bff417 	ldw	r2,-48(fp)
 1001844:	10800044 	addi	r2,r2,1
 1001848:	e0bff415 	stw	r2,-48(fp)
 100184c:	e0bff417 	ldw	r2,-48(fp)
 1001850:	10800290 	cmplti	r2,r2,10
 1001854:	103f901e 	bne	r2,zero,1001698 <__alt_data_end+0xff801698>
      else
        parsed[i] = c;
      response++;
    }
  }
  LOCUS_serial = parsed[0];
 1001858:	e0bff617 	ldw	r2,-40(fp)
 100185c:	d0a6f615 	stw	r2,-25640(gp)
  LOCUS_type = parsed[1];
 1001860:	e0bff717 	ldw	r2,-36(fp)
 1001864:	d0a70815 	stw	r2,-25568(gp)
  if (isalpha(parsed[2])) {
 1001868:	008040b4 	movhi	r2,258
 100186c:	10ad3604 	addi	r2,r2,-19240
 1001870:	10c00017 	ldw	r3,0(r2)
 1001874:	e0bff817 	ldw	r2,-32(fp)
 1001878:	10800044 	addi	r2,r2,1
 100187c:	1885883a 	add	r2,r3,r2
 1001880:	10800003 	ldbu	r2,0(r2)
 1001884:	10803fcc 	andi	r2,r2,255
 1001888:	108000cc 	andi	r2,r2,3
 100188c:	10000326 	beq	r2,zero,100189c <LOCUS_ReadStatus+0x298>
    parsed[2] = parsed[2] - 'a' + 10;
 1001890:	e0bff817 	ldw	r2,-32(fp)
 1001894:	10bfea44 	addi	r2,r2,-87
 1001898:	e0bff815 	stw	r2,-32(fp)
  }
  LOCUS_mode = parsed[2];
 100189c:	e0bff817 	ldw	r2,-32(fp)
 10018a0:	d0a6fb15 	stw	r2,-25620(gp)
  LOCUS_config = parsed[3];
 10018a4:	e0bff917 	ldw	r2,-28(fp)
 10018a8:	d0a6f915 	stw	r2,-25628(gp)
  LOCUS_interval = parsed[4];
 10018ac:	e0bffa17 	ldw	r2,-24(fp)
 10018b0:	d0a71615 	stw	r2,-25512(gp)
  LOCUS_distance = parsed[5];
 10018b4:	e0bffb17 	ldw	r2,-20(fp)
 10018b8:	d0a6f215 	stw	r2,-25656(gp)
  LOCUS_speed = parsed[6];
 10018bc:	e0bffc17 	ldw	r2,-16(fp)
 10018c0:	d0a70e15 	stw	r2,-25544(gp)
  LOCUS_status = !parsed[7];
 10018c4:	e0bffd17 	ldw	r2,-12(fp)
 10018c8:	1005003a 	cmpeq	r2,r2,zero
 10018cc:	10803fcc 	andi	r2,r2,255
 10018d0:	d0a70b15 	stw	r2,-25556(gp)
  LOCUS_records = parsed[8];
 10018d4:	e0bffe17 	ldw	r2,-8(fp)
 10018d8:	d0a71115 	stw	r2,-25532(gp)
  LOCUS_percent = parsed[9];
 10018dc:	e0bfff17 	ldw	r2,-4(fp)
 10018e0:	d0a70615 	stw	r2,-25576(gp)

  return 1;
 10018e4:	00800044 	movi	r2,1
}
 10018e8:	e037883a 	mov	sp,fp
 10018ec:	dfc00117 	ldw	ra,4(sp)
 10018f0:	df000017 	ldw	fp,0(sp)
 10018f4:	dec00204 	addi	sp,sp,8
 10018f8:	f800283a 	ret

010018fc <standby>:


int standby(void) {
 10018fc:	defffe04 	addi	sp,sp,-8
 1001900:	dfc00115 	stw	ra,4(sp)
 1001904:	df000015 	stw	fp,0(sp)
 1001908:	d839883a 	mov	fp,sp
  if (inStandbyMode == 1) {
 100190c:	d0a6f517 	ldw	r2,-25644(gp)
 1001910:	10800058 	cmpnei	r2,r2,1
 1001914:	1000021e 	bne	r2,zero,1001920 <standby+0x24>
    return 0;  // Returns false if already in standby mode, so that you do not wake it up by sending commands to GPS
 1001918:	0005883a 	mov	r2,zero
 100191c:	00000606 	br	1001938 <standby+0x3c>
  }
  else {
    inStandbyMode = 1;
 1001920:	00800044 	movi	r2,1
 1001924:	d0a6f515 	stw	r2,-25644(gp)
    sendCommand(PMTK_STANDBY);
 1001928:	010040b4 	movhi	r4,258
 100192c:	2124a404 	addi	r4,r4,-28016
 1001930:	1001ad00 	call	1001ad0 <sendCommand>
    //return waitForSentence(PMTK_STANDBY_SUCCESS);  // don't seem to be fast enough to catch the message, or something else just is not working
    return 1;
 1001934:	00800044 	movi	r2,1
  }
}
 1001938:	e037883a 	mov	sp,fp
 100193c:	dfc00117 	ldw	ra,4(sp)
 1001940:	df000017 	ldw	fp,0(sp)
 1001944:	dec00204 	addi	sp,sp,8
 1001948:	f800283a 	ret

0100194c <wakeup>:

int wakeup(void) {
 100194c:	defffe04 	addi	sp,sp,-8
 1001950:	dfc00115 	stw	ra,4(sp)
 1001954:	df000015 	stw	fp,0(sp)
 1001958:	d839883a 	mov	fp,sp
  if (inStandbyMode) {
 100195c:	d0a6f517 	ldw	r2,-25644(gp)
 1001960:	10000826 	beq	r2,zero,1001984 <wakeup+0x38>
   inStandbyMode = 0;
 1001964:	d026f515 	stw	zero,-25644(gp)
    sendCommand("");  // send byte to wake it up
 1001968:	010040b4 	movhi	r4,258
 100196c:	2124a804 	addi	r4,r4,-28000
 1001970:	1001ad00 	call	1001ad0 <sendCommand>
    return waitForSentence(PMTK_AWAKE);
 1001974:	010040b4 	movhi	r4,258
 1001978:	2124a904 	addi	r4,r4,-27996
 100197c:	10014ac0 	call	10014ac <waitForSentence>
 1001980:	00000106 	br	1001988 <wakeup+0x3c>
  }
  else {
      return 0;  // Returns false if not in standby mode, nothing to wakeup
 1001984:	0005883a 	mov	r2,zero
  }
}
 1001988:	e037883a 	mov	sp,fp
 100198c:	dfc00117 	ldw	ra,4(sp)
 1001990:	df000017 	ldw	fp,0(sp)
 1001994:	dec00204 	addi	sp,sp,8
 1001998:	f800283a 	ret

0100199c <FloatToLatitudeConversion>:




char *FloatToLatitudeConversion(int x) //output format is xx.yyyy
{
 100199c:	defffb04 	addi	sp,sp,-20
 10019a0:	dfc00415 	stw	ra,16(sp)
 10019a4:	df000315 	stw	fp,12(sp)
 10019a8:	df000304 	addi	fp,sp,12
 10019ac:	e13fff15 	stw	r4,-4(fp)
	static char buff[100] ;
	float *ptr = (float *)(&x) ; // cast int to float
 10019b0:	e0bfff04 	addi	r2,fp,-4
 10019b4:	e0bffd15 	stw	r2,-12(fp)
	float f = *ptr ; // get the float
 10019b8:	e0bffd17 	ldw	r2,-12(fp)
 10019bc:	10800017 	ldw	r2,0(r2)
 10019c0:	e0bffe15 	stw	r2,-8(fp)
	sprintf(buff, "%2.4f", f); // write in string to an array
 10019c4:	e13ffe17 	ldw	r4,-8(fp)
 10019c8:	10047cc0 	call	10047cc <__extendsfdf2>
 10019cc:	100f883a 	mov	r7,r2
 10019d0:	1811883a 	mov	r8,r3
 10019d4:	010040b4 	movhi	r4,258
 10019d8:	21345904 	addi	r4,r4,-11932
 10019dc:	014040b4 	movhi	r5,258
 10019e0:	2964ad04 	addi	r5,r5,-27980
 10019e4:	380d883a 	mov	r6,r7
 10019e8:	400f883a 	mov	r7,r8
 10019ec:	1004dd80 	call	1004dd8 <sprintf>
	return buff ;
 10019f0:	008040b4 	movhi	r2,258
 10019f4:	10b45904 	addi	r2,r2,-11932
}
 10019f8:	e037883a 	mov	sp,fp
 10019fc:	dfc00117 	ldw	ra,4(sp)
 1001a00:	df000017 	ldw	fp,0(sp)
 1001a04:	dec00204 	addi	sp,sp,8
 1001a08:	f800283a 	ret

01001a0c <FloatToLongitudeConversion>:
char *FloatToLongitudeConversion(int x) // output format is (-)xxx.yyyy
{
 1001a0c:	defffb04 	addi	sp,sp,-20
 1001a10:	dfc00415 	stw	ra,16(sp)
 1001a14:	df000315 	stw	fp,12(sp)
 1001a18:	df000304 	addi	fp,sp,12
 1001a1c:	e13fff15 	stw	r4,-4(fp)
	static char buff[100] ;
	float *ptr = (float *)(&x) ;
 1001a20:	e0bfff04 	addi	r2,fp,-4
 1001a24:	e0bffd15 	stw	r2,-12(fp)
	float f = *ptr ;
 1001a28:	e0bffd17 	ldw	r2,-12(fp)
 1001a2c:	10800017 	ldw	r2,0(r2)
 1001a30:	e0bffe15 	stw	r2,-8(fp)
	sprintf(buff, "%3.4f", f);
 1001a34:	e13ffe17 	ldw	r4,-8(fp)
 1001a38:	10047cc0 	call	10047cc <__extendsfdf2>
 1001a3c:	100f883a 	mov	r7,r2
 1001a40:	1811883a 	mov	r8,r3
 1001a44:	010040b4 	movhi	r4,258
 1001a48:	21347204 	addi	r4,r4,-11832
 1001a4c:	014040b4 	movhi	r5,258
 1001a50:	2964af04 	addi	r5,r5,-27972
 1001a54:	380d883a 	mov	r6,r7
 1001a58:	400f883a 	mov	r7,r8
 1001a5c:	1004dd80 	call	1004dd8 <sprintf>
	return buff ;
 1001a60:	008040b4 	movhi	r2,258
 1001a64:	10b47204 	addi	r2,r2,-11832
}
 1001a68:	e037883a 	mov	sp,fp
 1001a6c:	dfc00117 	ldw	ra,4(sp)
 1001a70:	df000017 	ldw	fp,0(sp)
 1001a74:	dec00204 	addi	sp,sp,8
 1001a78:	f800283a 	ret

01001a7c <putcharGPSCHIP>:


char putcharGPSCHIP(char c)
{
 1001a7c:	defffe04 	addi	sp,sp,-8
 1001a80:	df000115 	stw	fp,4(sp)
 1001a84:	df000104 	addi	fp,sp,4
 1001a88:	2005883a 	mov	r2,r4
 1001a8c:	e0bfff05 	stb	r2,-4(fp)
// poll Tx bit in 6850 status register. Wait for it to become '1'

// write 'c' to the 6850 TxData register to output the character

	while (!(GPSCHIP_Status & 0x2));
 1001a90:	0001883a 	nop
 1001a94:	00a10034 	movhi	r2,33792
 1001a98:	10808404 	addi	r2,r2,528
 1001a9c:	10800003 	ldbu	r2,0(r2)
 1001aa0:	10803fcc 	andi	r2,r2,255
 1001aa4:	1080008c 	andi	r2,r2,2
 1001aa8:	103ffa26 	beq	r2,zero,1001a94 <__alt_data_end+0xff801a94>
	GPSCHIP_TxData = c;
 1001aac:	00a10034 	movhi	r2,33792
 1001ab0:	10808484 	addi	r2,r2,530
 1001ab4:	e0ffff03 	ldbu	r3,-4(fp)
 1001ab8:	10c00005 	stb	r3,0(r2)

	return c;
 1001abc:	e0bfff03 	ldbu	r2,-4(fp)
}
 1001ac0:	e037883a 	mov	sp,fp
 1001ac4:	df000017 	ldw	fp,0(sp)
 1001ac8:	dec00104 	addi	sp,sp,4
 1001acc:	f800283a 	ret

01001ad0 <sendCommand>:

void sendCommand(const char *str){
 1001ad0:	defffb04 	addi	sp,sp,-20
 1001ad4:	dfc00415 	stw	ra,16(sp)
 1001ad8:	df000315 	stw	fp,12(sp)
 1001adc:	df000304 	addi	fp,sp,12
 1001ae0:	e13fff15 	stw	r4,-4(fp)

	int length = sizeof(str);
 1001ae4:	00800104 	movi	r2,4
 1001ae8:	e0bffe15 	stw	r2,-8(fp)

	int i = 0;
 1001aec:	e03ffd15 	stw	zero,-12(fp)
		for(i = 0; i < length; i++){
 1001af0:	e03ffd15 	stw	zero,-12(fp)
 1001af4:	00000f06 	br	1001b34 <sendCommand+0x64>
			usleep(100000); //wait for 100ms
 1001af8:	010000b4 	movhi	r4,2
 1001afc:	2121a804 	addi	r4,r4,-31072
 1001b00:	1016a700 	call	1016a70 <usleep>
			putcharGPSCHIP(str[i]);
 1001b04:	e0bffd17 	ldw	r2,-12(fp)
 1001b08:	e0ffff17 	ldw	r3,-4(fp)
 1001b0c:	1885883a 	add	r2,r3,r2
 1001b10:	10800003 	ldbu	r2,0(r2)
 1001b14:	10803fcc 	andi	r2,r2,255
 1001b18:	1080201c 	xori	r2,r2,128
 1001b1c:	10bfe004 	addi	r2,r2,-128
 1001b20:	1009883a 	mov	r4,r2
 1001b24:	1001a7c0 	call	1001a7c <putcharGPSCHIP>
void sendCommand(const char *str){

	int length = sizeof(str);

	int i = 0;
		for(i = 0; i < length; i++){
 1001b28:	e0bffd17 	ldw	r2,-12(fp)
 1001b2c:	10800044 	addi	r2,r2,1
 1001b30:	e0bffd15 	stw	r2,-12(fp)
 1001b34:	e0fffd17 	ldw	r3,-12(fp)
 1001b38:	e0bffe17 	ldw	r2,-8(fp)
 1001b3c:	18bfee16 	blt	r3,r2,1001af8 <__alt_data_end+0xff801af8>
			usleep(100000); //wait for 100ms
			putcharGPSCHIP(str[i]);
		}
}
 1001b40:	e037883a 	mov	sp,fp
 1001b44:	dfc00117 	ldw	ra,4(sp)
 1001b48:	df000017 	ldw	fp,0(sp)
 1001b4c:	dec00204 	addi	sp,sp,8
 1001b50:	f800283a 	ret

01001b54 <getcharGPSCHIP>:



char getcharGPSCHIP( void )
{
 1001b54:	deffff04 	addi	sp,sp,-4
 1001b58:	df000015 	stw	fp,0(sp)
 1001b5c:	d839883a 	mov	fp,sp
 // poll Rx bit in 6850 status register. Wait for it to become '1'
 // read received character from 6850 RxData register.
	while (!(GPSCHIP_Status & 0x1));
 1001b60:	0001883a 	nop
 1001b64:	00a10034 	movhi	r2,33792
 1001b68:	10808404 	addi	r2,r2,528
 1001b6c:	10800003 	ldbu	r2,0(r2)
 1001b70:	10803fcc 	andi	r2,r2,255
 1001b74:	1080004c 	andi	r2,r2,1
 1001b78:	103ffa26 	beq	r2,zero,1001b64 <__alt_data_end+0xff801b64>

	if(GPSCHIP_RxData == '\n') {
 1001b7c:	00a10034 	movhi	r2,33792
 1001b80:	10808484 	addi	r2,r2,530
 1001b84:	10800003 	ldbu	r2,0(r2)
 1001b88:	10803fcc 	andi	r2,r2,255
 1001b8c:	10800298 	cmpnei	r2,r2,10
 1001b90:	1000181e 	bne	r2,zero,1001bf4 <getcharGPSCHIP+0xa0>

		currentline[lineidx] = 0;
 1001b94:	d0a71317 	ldw	r2,-25524(gp)
 1001b98:	d0e6ef17 	ldw	r3,-25668(gp)
 1001b9c:	10c5883a 	add	r2,r2,r3
 1001ba0:	10000005 	stb	zero,0(r2)

		if(currentline == line1) {
 1001ba4:	d0e71317 	ldw	r3,-25524(gp)
 1001ba8:	008040b4 	movhi	r2,258
 1001bac:	10b49504 	addi	r2,r2,-11692
 1001bb0:	1880071e 	bne	r3,r2,1001bd0 <getcharGPSCHIP+0x7c>
			currentline = line2;
 1001bb4:	008040b4 	movhi	r2,258
 1001bb8:	10b4b304 	addi	r2,r2,-11572
 1001bbc:	d0a71315 	stw	r2,-25524(gp)
			lastline = line1;
 1001bc0:	008040b4 	movhi	r2,258
 1001bc4:	10b49504 	addi	r2,r2,-11692
 1001bc8:	d0a6f315 	stw	r2,-25652(gp)
 1001bcc:	00000606 	br	1001be8 <getcharGPSCHIP+0x94>
		} else {
			currentline = line1;
 1001bd0:	008040b4 	movhi	r2,258
 1001bd4:	10b49504 	addi	r2,r2,-11692
 1001bd8:	d0a71315 	stw	r2,-25524(gp)
			lastline = line2;
 1001bdc:	008040b4 	movhi	r2,258
 1001be0:	10b4b304 	addi	r2,r2,-11572
 1001be4:	d0a6f315 	stw	r2,-25652(gp)
		}

		lineidx = 0;
 1001be8:	d026ef15 	stw	zero,-25668(gp)
		receivedFlag = 1;
 1001bec:	00800044 	movi	r2,1
 1001bf0:	d0a6fe15 	stw	r2,-25608(gp)

	}

	currentline[lineidx++] = GPSCHIP_RxData;
 1001bf4:	d0e71317 	ldw	r3,-25524(gp)
 1001bf8:	d0a6ef17 	ldw	r2,-25668(gp)
 1001bfc:	11000044 	addi	r4,r2,1
 1001c00:	d126ef15 	stw	r4,-25668(gp)
 1001c04:	1887883a 	add	r3,r3,r2
 1001c08:	00a10034 	movhi	r2,33792
 1001c0c:	10808484 	addi	r2,r2,530
 1001c10:	10800003 	ldbu	r2,0(r2)
 1001c14:	18800005 	stb	r2,0(r3)
	if(lineidx >= MAXLINELENGTH)
 1001c18:	d0a6ef17 	ldw	r2,-25668(gp)
 1001c1c:	10801e10 	cmplti	r2,r2,120
 1001c20:	1000021e 	bne	r2,zero,1001c2c <getcharGPSCHIP+0xd8>
		lineidx = MAXLINELENGTH - 1;
 1001c24:	00801dc4 	movi	r2,119
 1001c28:	d0a6ef15 	stw	r2,-25668(gp)


	return GPSCHIP_RxData;
 1001c2c:	00a10034 	movhi	r2,33792
 1001c30:	10808484 	addi	r2,r2,530
 1001c34:	10800003 	ldbu	r2,0(r2)
}
 1001c38:	e037883a 	mov	sp,fp
 1001c3c:	df000017 	ldw	fp,0(sp)
 1001c40:	dec00104 	addi	sp,sp,4
 1001c44:	f800283a 	ret

01001c48 <GPSCHIPTestForReceivedData>:

// the following function polls the 6850 to determine if any character
// has been received. It doesn't wait for one, or read it, it simply tests
// to see if one is available to read
int GPSCHIPTestForReceivedData(void)
{
 1001c48:	deffff04 	addi	sp,sp,-4
 1001c4c:	df000015 	stw	fp,0(sp)
 1001c50:	d839883a 	mov	fp,sp
 // Test Rx bit in 6850 serial comms chip status register
 // if RX bit is set, return TRUE, otherwise return FALSE

	// RS232_Status: XXXX XXXX
	// We want bit0: 0000 0001
	return (GPSCHIP_Status & 0x1);
 1001c54:	00a10034 	movhi	r2,33792
 1001c58:	10808404 	addi	r2,r2,528
 1001c5c:	10800003 	ldbu	r2,0(r2)
 1001c60:	10803fcc 	andi	r2,r2,255
 1001c64:	1080004c 	andi	r2,r2,1
}
 1001c68:	e037883a 	mov	sp,fp
 1001c6c:	df000017 	ldw	fp,0(sp)
 1001c70:	dec00104 	addi	sp,sp,4
 1001c74:	f800283a 	ret

01001c78 <GPSCHIPTestForTransmitData>:

int GPSCHIPTestForTransmitData(void) {
 1001c78:	deffff04 	addi	sp,sp,-4
 1001c7c:	df000015 	stw	fp,0(sp)
 1001c80:	d839883a 	mov	fp,sp
	// Test Tx bit in 6850 serial communications chip status register
	// if TX bit is set, return TRUE, otherwise return FALSE

	// RS232_Status: XXXX XXXX
	// We want bit1: 0000 0010
	return (GPSCHIP_Status & 0x2);
 1001c84:	00a10034 	movhi	r2,33792
 1001c88:	10808404 	addi	r2,r2,528
 1001c8c:	10800003 	ldbu	r2,0(r2)
 1001c90:	10803fcc 	andi	r2,r2,255
 1001c94:	1080008c 	andi	r2,r2,2
}
 1001c98:	e037883a 	mov	sp,fp
 1001c9c:	df000017 	ldw	fp,0(sp)
 1001ca0:	dec00104 	addi	sp,sp,4
 1001ca4:	f800283a 	ret

01001ca8 <main>:

int main() {
 1001ca8:	defffe04 	addi	sp,sp,-8
 1001cac:	dfc00115 	stw	ra,4(sp)
 1001cb0:	df000015 	stw	fp,0(sp)
 1001cb4:	d839883a 	mov	fp,sp
	printf("Test GPSCHIP\n");
 1001cb8:	010040b4 	movhi	r4,258
 1001cbc:	2124b104 	addi	r4,r4,-27964
 1001cc0:	1004d6c0 	call	1004d6c <puts>
	Init_GPSCHIP();
 1001cc4:	100020c0 	call	100020c <Init_GPSCHIP>

	while(1){
		getcharGPSCHIP();
 1001cc8:	1001b540 	call	1001b54 <getcharGPSCHIP>

		if(newNMEAreceived() == 1) {
 1001ccc:	10015400 	call	1001540 <newNMEAreceived>
 1001cd0:	10800058 	cmpnei	r2,r2,1
 1001cd4:	10003d1e 	bne	r2,zero,1001dcc <main+0x124>
			if(parseData(lastNMEA())
 1001cd8:	10015600 	call	1001560 <lastNMEA>
 1001cdc:	1009883a 	mov	r4,r2
 1001ce0:	100031c0 	call	100031c <parseData>
 1001ce4:	10800058 	cmpnei	r2,r2,1
 1001ce8:	1000381e 	bne	r2,zero,1001dcc <main+0x124>
					== 1){
				printf("Time:" );
 1001cec:	010040b4 	movhi	r4,258
 1001cf0:	2124b504 	addi	r4,r4,-27948
 1001cf4:	1004c780 	call	1004c78 <printf>
				printf("Hour: %d", hour );
 1001cf8:	d0a6ff17 	ldw	r2,-25604(gp)
 1001cfc:	010040b4 	movhi	r4,258
 1001d00:	2124b704 	addi	r4,r4,-27940
 1001d04:	100b883a 	mov	r5,r2
 1001d08:	1004c780 	call	1004c78 <printf>
				printf("Minute: %d", minute );
 1001d0c:	d0a6fa17 	ldw	r2,-25624(gp)
 1001d10:	010040b4 	movhi	r4,258
 1001d14:	2124ba04 	addi	r4,r4,-27928
 1001d18:	100b883a 	mov	r5,r2
 1001d1c:	1004c780 	call	1004c78 <printf>
				printf("milliseconds: %d", milliseconds );
 1001d20:	d0a6fd17 	ldw	r2,-25612(gp)
 1001d24:	010040b4 	movhi	r4,258
 1001d28:	2124bd04 	addi	r4,r4,-27916
 1001d2c:	100b883a 	mov	r5,r2
 1001d30:	1004c780 	call	1004c78 <printf>
				printf("Date: ");
 1001d34:	010040b4 	movhi	r4,258
 1001d38:	2124c204 	addi	r4,r4,-27896
 1001d3c:	1004c780 	call	1004c78 <printf>
				printf("Day: %d", day);
 1001d40:	d0a71017 	ldw	r2,-25536(gp)
 1001d44:	010040b4 	movhi	r4,258
 1001d48:	2124c404 	addi	r4,r4,-27888
 1001d4c:	100b883a 	mov	r5,r2
 1001d50:	1004c780 	call	1004c78 <printf>
				printf("Month: %d", month);
 1001d54:	d0a6f817 	ldw	r2,-25632(gp)
 1001d58:	010040b4 	movhi	r4,258
 1001d5c:	2124c604 	addi	r4,r4,-27880
 1001d60:	100b883a 	mov	r5,r2
 1001d64:	1004c780 	call	1004c78 <printf>
				printf("Year: %d", year);
 1001d68:	d0a70d17 	ldw	r2,-25548(gp)
 1001d6c:	010040b4 	movhi	r4,258
 1001d70:	2124c904 	addi	r4,r4,-27868
 1001d74:	100b883a 	mov	r5,r2
 1001d78:	1004c780 	call	1004c78 <printf>
				printf("Latitude: %.2f", latitude);
 1001d7c:	d0a70f17 	ldw	r2,-25540(gp)
 1001d80:	1009883a 	mov	r4,r2
 1001d84:	10047cc0 	call	10047cc <__extendsfdf2>
 1001d88:	100d883a 	mov	r6,r2
 1001d8c:	180f883a 	mov	r7,r3
 1001d90:	010040b4 	movhi	r4,258
 1001d94:	2124cc04 	addi	r4,r4,-27856
 1001d98:	300b883a 	mov	r5,r6
 1001d9c:	380d883a 	mov	r6,r7
 1001da0:	1004c780 	call	1004c78 <printf>
				printf("Longitude: %.2f", longitude);
 1001da4:	d0a70217 	ldw	r2,-25592(gp)
 1001da8:	1009883a 	mov	r4,r2
 1001dac:	10047cc0 	call	10047cc <__extendsfdf2>
 1001db0:	100d883a 	mov	r6,r2
 1001db4:	180f883a 	mov	r7,r3
 1001db8:	010040b4 	movhi	r4,258
 1001dbc:	2124d004 	addi	r4,r4,-27840
 1001dc0:	300b883a 	mov	r5,r6
 1001dc4:	380d883a 	mov	r6,r7
 1001dc8:	1004c780 	call	1004c78 <printf>
			}
		}

	}
 1001dcc:	003fbe06 	br	1001cc8 <__alt_data_end+0xff801cc8>

01001dd0 <fmod>:
 1001dd0:	deffef04 	addi	sp,sp,-68
 1001dd4:	dc400a15 	stw	r17,40(sp)
 1001dd8:	044040b4 	movhi	r17,258
 1001ddc:	dd800f15 	stw	r22,60(sp)
 1001de0:	dd400e15 	stw	r21,56(sp)
 1001de4:	dd000d15 	stw	r20,52(sp)
 1001de8:	dcc00c15 	stw	r19,48(sp)
 1001dec:	dc800b15 	stw	r18,44(sp)
 1001df0:	dc000915 	stw	r16,36(sp)
 1001df4:	dfc01015 	stw	ra,64(sp)
 1001df8:	8c6d3504 	addi	r17,r17,-19244
 1001dfc:	202b883a 	mov	r21,r4
 1001e00:	2829883a 	mov	r20,r5
 1001e04:	3027883a 	mov	r19,r6
 1001e08:	3825883a 	mov	r18,r7
 1001e0c:	1001f280 	call	1001f28 <__ieee754_fmod>
 1001e10:	8a000017 	ldw	r8,0(r17)
 1001e14:	1021883a 	mov	r16,r2
 1001e18:	00bfffc4 	movi	r2,-1
 1001e1c:	182d883a 	mov	r22,r3
 1001e20:	40800426 	beq	r8,r2,1001e34 <fmod+0x64>
 1001e24:	9809883a 	mov	r4,r19
 1001e28:	900b883a 	mov	r5,r18
 1001e2c:	10022580 	call	1002258 <__fpclassifyd>
 1001e30:	10000c1e 	bne	r2,zero,1001e64 <fmod+0x94>
 1001e34:	8005883a 	mov	r2,r16
 1001e38:	b007883a 	mov	r3,r22
 1001e3c:	dfc01017 	ldw	ra,64(sp)
 1001e40:	dd800f17 	ldw	r22,60(sp)
 1001e44:	dd400e17 	ldw	r21,56(sp)
 1001e48:	dd000d17 	ldw	r20,52(sp)
 1001e4c:	dcc00c17 	ldw	r19,48(sp)
 1001e50:	dc800b17 	ldw	r18,44(sp)
 1001e54:	dc400a17 	ldw	r17,40(sp)
 1001e58:	dc000917 	ldw	r16,36(sp)
 1001e5c:	dec01104 	addi	sp,sp,68
 1001e60:	f800283a 	ret
 1001e64:	a809883a 	mov	r4,r21
 1001e68:	a00b883a 	mov	r5,r20
 1001e6c:	10022580 	call	1002258 <__fpclassifyd>
 1001e70:	103ff026 	beq	r2,zero,1001e34 <__alt_data_end+0xff801e34>
 1001e74:	9809883a 	mov	r4,r19
 1001e78:	900b883a 	mov	r5,r18
 1001e7c:	000d883a 	mov	r6,zero
 1001e80:	000f883a 	mov	r7,zero
 1001e84:	1003f9c0 	call	1003f9c <__eqdf2>
 1001e88:	103fea1e 	bne	r2,zero,1001e34 <__alt_data_end+0xff801e34>
 1001e8c:	00800044 	movi	r2,1
 1001e90:	d8800015 	stw	r2,0(sp)
 1001e94:	8c000017 	ldw	r16,0(r17)
 1001e98:	008040b4 	movhi	r2,258
 1001e9c:	10a4d404 	addi	r2,r2,-27824
 1001ea0:	d8800115 	stw	r2,4(sp)
 1001ea4:	dd400215 	stw	r21,8(sp)
 1001ea8:	dd000315 	stw	r20,12(sp)
 1001eac:	dcc00415 	stw	r19,16(sp)
 1001eb0:	dc800515 	stw	r18,20(sp)
 1001eb4:	d8000815 	stw	zero,32(sp)
 1001eb8:	80001126 	beq	r16,zero,1001f00 <fmod+0x130>
 1001ebc:	0009883a 	mov	r4,zero
 1001ec0:	000b883a 	mov	r5,zero
 1001ec4:	000d883a 	mov	r6,zero
 1001ec8:	000f883a 	mov	r7,zero
 1001ecc:	10036d00 	call	10036d0 <__divdf3>
 1001ed0:	d8800615 	stw	r2,24(sp)
 1001ed4:	d8c00715 	stw	r3,28(sp)
 1001ed8:	00800084 	movi	r2,2
 1001edc:	80800a1e 	bne	r16,r2,1001f08 <fmod+0x138>
 1001ee0:	1004c3c0 	call	1004c3c <__errno>
 1001ee4:	00c00844 	movi	r3,33
 1001ee8:	10c00015 	stw	r3,0(r2)
 1001eec:	d8800817 	ldw	r2,32(sp)
 1001ef0:	1000091e 	bne	r2,zero,1001f18 <fmod+0x148>
 1001ef4:	d8800617 	ldw	r2,24(sp)
 1001ef8:	d8c00717 	ldw	r3,28(sp)
 1001efc:	003fcf06 	br	1001e3c <__alt_data_end+0xff801e3c>
 1001f00:	dd400615 	stw	r21,24(sp)
 1001f04:	dd000715 	stw	r20,28(sp)
 1001f08:	d809883a 	mov	r4,sp
 1001f0c:	10022cc0 	call	10022cc <matherr>
 1001f10:	103ff61e 	bne	r2,zero,1001eec <__alt_data_end+0xff801eec>
 1001f14:	003ff206 	br	1001ee0 <__alt_data_end+0xff801ee0>
 1001f18:	1004c3c0 	call	1004c3c <__errno>
 1001f1c:	d8c00817 	ldw	r3,32(sp)
 1001f20:	10c00015 	stw	r3,0(r2)
 1001f24:	003ff306 	br	1001ef4 <__alt_data_end+0xff801ef4>

01001f28 <__ieee754_fmod>:
 1001f28:	00e00034 	movhi	r3,32768
 1001f2c:	18ffffc4 	addi	r3,r3,-1
 1001f30:	deffff04 	addi	sp,sp,-4
 1001f34:	38c6703a 	and	r3,r7,r3
 1001f38:	dfc00015 	stw	ra,0(sp)
 1001f3c:	1984b03a 	or	r2,r3,r6
 1001f40:	10001926 	beq	r2,zero,1001fa8 <__ieee754_fmod+0x80>
 1001f44:	2a60002c 	andhi	r9,r5,32768
 1001f48:	009ffc34 	movhi	r2,32752
 1001f4c:	4954f03a 	xor	r10,r9,r5
 1001f50:	10bfffc4 	addi	r2,r2,-1
 1001f54:	12801416 	blt	r2,r10,1001fa8 <__ieee754_fmod+0x80>
 1001f58:	0185c83a 	sub	r2,zero,r6
 1001f5c:	1184b03a 	or	r2,r2,r6
 1001f60:	1004d7fa 	srli	r2,r2,31
 1001f64:	02dffc34 	movhi	r11,32752
 1001f68:	10c4b03a 	or	r2,r2,r3
 1001f6c:	58800e36 	bltu	r11,r2,1001fa8 <__ieee754_fmod+0x80>
 1001f70:	2011883a 	mov	r8,r4
 1001f74:	3019883a 	mov	r12,r6
 1001f78:	1a801416 	blt	r3,r10,1001fcc <__ieee754_fmod+0xa4>
 1001f7c:	50c01e16 	blt	r10,r3,1001ff8 <__ieee754_fmod+0xd0>
 1001f80:	21801d36 	bltu	r4,r6,1001ff8 <__ieee754_fmod+0xd0>
 1001f84:	2180111e 	bne	r4,r6,1001fcc <__ieee754_fmod+0xa4>
 1001f88:	4806d7fa 	srli	r3,r9,31
 1001f8c:	180490fa 	slli	r2,r3,3
 1001f90:	00c040b4 	movhi	r3,258
 1001f94:	18e4d604 	addi	r3,r3,-27816
 1001f98:	1887883a 	add	r3,r3,r2
 1001f9c:	18800017 	ldw	r2,0(r3)
 1001fa0:	18c00117 	ldw	r3,4(r3)
 1001fa4:	00000606 	br	1001fc0 <__ieee754_fmod+0x98>
 1001fa8:	10040200 	call	1004020 <__muldf3>
 1001fac:	1009883a 	mov	r4,r2
 1001fb0:	180b883a 	mov	r5,r3
 1001fb4:	100d883a 	mov	r6,r2
 1001fb8:	180f883a 	mov	r7,r3
 1001fbc:	10036d00 	call	10036d0 <__divdf3>
 1001fc0:	dfc00017 	ldw	ra,0(sp)
 1001fc4:	dec00104 	addi	sp,sp,4
 1001fc8:	f800283a 	ret
 1001fcc:	00800434 	movhi	r2,16
 1001fd0:	10bfffc4 	addi	r2,r2,-1
 1001fd4:	12800b16 	blt	r2,r10,1002004 <__ieee754_fmod+0xdc>
 1001fd8:	5000711e 	bne	r10,zero,10021a0 <__ieee754_fmod+0x278>
 1001fdc:	2005883a 	mov	r2,r4
 1001fe0:	017efb44 	movi	r5,-1043
 1001fe4:	0100090e 	bge	zero,r4,100200c <__ieee754_fmod+0xe4>
 1001fe8:	1085883a 	add	r2,r2,r2
 1001fec:	297fffc4 	addi	r5,r5,-1
 1001ff0:	00bffd16 	blt	zero,r2,1001fe8 <__alt_data_end+0xff801fe8>
 1001ff4:	00000506 	br	100200c <__ieee754_fmod+0xe4>
 1001ff8:	2005883a 	mov	r2,r4
 1001ffc:	2807883a 	mov	r3,r5
 1002000:	003fef06 	br	1001fc0 <__alt_data_end+0xff801fc0>
 1002004:	500bd53a 	srai	r5,r10,20
 1002008:	297f0044 	addi	r5,r5,-1023
 100200c:	00800434 	movhi	r2,16
 1002010:	10bfffc4 	addi	r2,r2,-1
 1002014:	10c00816 	blt	r2,r3,1002038 <__ieee754_fmod+0x110>
 1002018:	1800681e 	bne	r3,zero,10021bc <__ieee754_fmod+0x294>
 100201c:	3005883a 	mov	r2,r6
 1002020:	03befb44 	movi	r14,-1043
 1002024:	0180060e 	bge	zero,r6,1002040 <__ieee754_fmod+0x118>
 1002028:	1085883a 	add	r2,r2,r2
 100202c:	73bfffc4 	addi	r14,r14,-1
 1002030:	00bffd16 	blt	zero,r2,1002028 <__alt_data_end+0xff802028>
 1002034:	00000206 	br	1002040 <__ieee754_fmod+0x118>
 1002038:	1805d53a 	srai	r2,r3,20
 100203c:	13bf0044 	addi	r14,r2,-1023
 1002040:	00bf0084 	movi	r2,-1022
 1002044:	28804b16 	blt	r5,r2,1002174 <__ieee754_fmod+0x24c>
 1002048:	00800434 	movhi	r2,16
 100204c:	10bfffc4 	addi	r2,r2,-1
 1002050:	5088703a 	and	r4,r10,r2
 1002054:	21000434 	orhi	r4,r4,16
 1002058:	00bf0084 	movi	r2,-1022
 100205c:	70803c16 	blt	r14,r2,1002150 <__ieee754_fmod+0x228>
 1002060:	00c00434 	movhi	r3,16
 1002064:	18ffffc4 	addi	r3,r3,-1
 1002068:	38ce703a 	and	r7,r7,r3
 100206c:	39800434 	orhi	r6,r7,16
 1002070:	2b8bc83a 	sub	r5,r5,r14
 1002074:	00000406 	br	1002088 <__ieee754_fmod+0x160>
 1002078:	58001126 	beq	r11,zero,10020c0 <__ieee754_fmod+0x198>
 100207c:	1091883a 	add	r8,r2,r2
 1002080:	6a89883a 	add	r4,r13,r10
 1002084:	297fffc4 	addi	r5,r5,-1
 1002088:	4305c83a 	sub	r2,r8,r12
 100208c:	1014d7fa 	srli	r10,r2,31
 1002090:	28001326 	beq	r5,zero,10020e0 <__ieee754_fmod+0x1b8>
 1002094:	2187c83a 	sub	r3,r4,r6
 1002098:	4300012e 	bgeu	r8,r12,10020a0 <__ieee754_fmod+0x178>
 100209c:	18ffffc4 	addi	r3,r3,-1
 10020a0:	1896b03a 	or	r11,r3,r2
 10020a4:	18db883a 	add	r13,r3,r3
 10020a8:	183ff30e 	bge	r3,zero,1002078 <__alt_data_end+0xff802078>
 10020ac:	4004d7fa 	srli	r2,r8,31
 10020b0:	2109883a 	add	r4,r4,r4
 10020b4:	4211883a 	add	r8,r8,r8
 10020b8:	2089883a 	add	r4,r4,r2
 10020bc:	003ff106 	br	1002084 <__alt_data_end+0xff802084>
 10020c0:	4806d7fa 	srli	r3,r9,31
 10020c4:	008040b4 	movhi	r2,258
 10020c8:	10a4d604 	addi	r2,r2,-27816
 10020cc:	180690fa 	slli	r3,r3,3
 10020d0:	10c7883a 	add	r3,r2,r3
 10020d4:	18800017 	ldw	r2,0(r3)
 10020d8:	18c00117 	ldw	r3,4(r3)
 10020dc:	003fb806 	br	1001fc0 <__alt_data_end+0xff801fc0>
 10020e0:	218dc83a 	sub	r6,r4,r6
 10020e4:	43002c36 	bltu	r8,r12,1002198 <__ieee754_fmod+0x270>
 10020e8:	30004c16 	blt	r6,zero,100221c <__ieee754_fmod+0x2f4>
 10020ec:	4311c83a 	sub	r8,r8,r12
 10020f0:	3204b03a 	or	r2,r6,r8
 10020f4:	103ff226 	beq	r2,zero,10020c0 <__alt_data_end+0xff8020c0>
 10020f8:	00c00434 	movhi	r3,16
 10020fc:	18ffffc4 	addi	r3,r3,-1
 1002100:	19800616 	blt	r3,r6,100211c <__ieee754_fmod+0x1f4>
 1002104:	4004d7fa 	srli	r2,r8,31
 1002108:	318d883a 	add	r6,r6,r6
 100210c:	4211883a 	add	r8,r8,r8
 1002110:	308d883a 	add	r6,r6,r2
 1002114:	73bfffc4 	addi	r14,r14,-1
 1002118:	19bffa0e 	bge	r3,r6,1002104 <__alt_data_end+0xff802104>
 100211c:	00bf0084 	movi	r2,-1022
 1002120:	7080360e 	bge	r14,r2,10021fc <__ieee754_fmod+0x2d4>
 1002124:	1385c83a 	sub	r2,r2,r14
 1002128:	00c00504 	movi	r3,20
 100212c:	18803d16 	blt	r3,r2,1002224 <__ieee754_fmod+0x2fc>
 1002130:	71010784 	addi	r4,r14,1054
 1002134:	4090d83a 	srl	r8,r8,r2
 1002138:	3108983a 	sll	r4,r6,r4
 100213c:	3087d83a 	sra	r3,r6,r2
 1002140:	2208b03a 	or	r4,r4,r8
 1002144:	2005883a 	mov	r2,r4
 1002148:	1a46b03a 	or	r3,r3,r9
 100214c:	003f9c06 	br	1001fc0 <__alt_data_end+0xff801fc0>
 1002150:	1385c83a 	sub	r2,r2,r14
 1002154:	01c007c4 	movi	r7,31
 1002158:	38802316 	blt	r7,r2,10021e8 <__ieee754_fmod+0x2c0>
 100215c:	71c10784 	addi	r7,r14,1054
 1002160:	1886983a 	sll	r3,r3,r2
 1002164:	31ced83a 	srl	r7,r6,r7
 1002168:	3098983a 	sll	r12,r6,r2
 100216c:	19ccb03a 	or	r6,r3,r7
 1002170:	003fbf06 	br	1002070 <__alt_data_end+0xff802070>
 1002174:	1145c83a 	sub	r2,r2,r5
 1002178:	020007c4 	movi	r8,31
 100217c:	40801516 	blt	r8,r2,10021d4 <__ieee754_fmod+0x2ac>
 1002180:	2ac10784 	addi	r11,r5,1054
 1002184:	5094983a 	sll	r10,r10,r2
 1002188:	22d6d83a 	srl	r11,r4,r11
 100218c:	2090983a 	sll	r8,r4,r2
 1002190:	52c8b03a 	or	r4,r10,r11
 1002194:	003fb006 	br	1002058 <__alt_data_end+0xff802058>
 1002198:	31bfffc4 	addi	r6,r6,-1
 100219c:	003fd206 	br	10020e8 <__alt_data_end+0xff8020e8>
 10021a0:	500492fa 	slli	r2,r10,11
 10021a4:	017f0084 	movi	r5,-1022
 10021a8:	00bf980e 	bge	zero,r2,100200c <__alt_data_end+0xff80200c>
 10021ac:	1085883a 	add	r2,r2,r2
 10021b0:	297fffc4 	addi	r5,r5,-1
 10021b4:	00bffd16 	blt	zero,r2,10021ac <__alt_data_end+0xff8021ac>
 10021b8:	003f9406 	br	100200c <__alt_data_end+0xff80200c>
 10021bc:	180492fa 	slli	r2,r3,11
 10021c0:	03bf0084 	movi	r14,-1022
 10021c4:	1085883a 	add	r2,r2,r2
 10021c8:	73bfffc4 	addi	r14,r14,-1
 10021cc:	00bffd16 	blt	zero,r2,10021c4 <__alt_data_end+0xff8021c4>
 10021d0:	003f9b06 	br	1002040 <__alt_data_end+0xff802040>
 10021d4:	00bef884 	movi	r2,-1054
 10021d8:	1145c83a 	sub	r2,r2,r5
 10021dc:	2088983a 	sll	r4,r4,r2
 10021e0:	0011883a 	mov	r8,zero
 10021e4:	003f9c06 	br	1002058 <__alt_data_end+0xff802058>
 10021e8:	00bef884 	movi	r2,-1054
 10021ec:	1385c83a 	sub	r2,r2,r14
 10021f0:	308c983a 	sll	r6,r6,r2
 10021f4:	0019883a 	mov	r12,zero
 10021f8:	003f9d06 	br	1002070 <__alt_data_end+0xff802070>
 10021fc:	71c0ffc4 	addi	r7,r14,1023
 1002200:	380e953a 	slli	r7,r7,20
 1002204:	00fffc34 	movhi	r3,65520
 1002208:	30c7883a 	add	r3,r6,r3
 100220c:	1a46b03a 	or	r3,r3,r9
 1002210:	4005883a 	mov	r2,r8
 1002214:	19c6b03a 	or	r3,r3,r7
 1002218:	003f6906 	br	1001fc0 <__alt_data_end+0xff801fc0>
 100221c:	200d883a 	mov	r6,r4
 1002220:	003fb306 	br	10020f0 <__alt_data_end+0xff8020f0>
 1002224:	00c007c4 	movi	r3,31
 1002228:	18800616 	blt	r3,r2,1002244 <__ieee754_fmod+0x31c>
 100222c:	71c10784 	addi	r7,r14,1054
 1002230:	4090d83a 	srl	r8,r8,r2
 1002234:	31c4983a 	sll	r2,r6,r7
 1002238:	4807883a 	mov	r3,r9
 100223c:	1208b03a 	or	r4,r2,r8
 1002240:	003fc006 	br	1002144 <__alt_data_end+0xff802144>
 1002244:	00bef884 	movi	r2,-1054
 1002248:	1385c83a 	sub	r2,r2,r14
 100224c:	3089d83a 	sra	r4,r6,r2
 1002250:	4807883a 	mov	r3,r9
 1002254:	003fbb06 	br	1002144 <__alt_data_end+0xff802144>

01002258 <__fpclassifyd>:
 1002258:	00a00034 	movhi	r2,32768
 100225c:	10bfffc4 	addi	r2,r2,-1
 1002260:	2884703a 	and	r2,r5,r2
 1002264:	10000726 	beq	r2,zero,1002284 <__fpclassifyd+0x2c>
 1002268:	00fffc34 	movhi	r3,65520
 100226c:	019ff834 	movhi	r6,32736
 1002270:	28c7883a 	add	r3,r5,r3
 1002274:	31bfffc4 	addi	r6,r6,-1
 1002278:	30c00536 	bltu	r6,r3,1002290 <__fpclassifyd+0x38>
 100227c:	00800104 	movi	r2,4
 1002280:	f800283a 	ret
 1002284:	2000021e 	bne	r4,zero,1002290 <__fpclassifyd+0x38>
 1002288:	00800084 	movi	r2,2
 100228c:	f800283a 	ret
 1002290:	00dffc34 	movhi	r3,32752
 1002294:	019ff834 	movhi	r6,32736
 1002298:	28cb883a 	add	r5,r5,r3
 100229c:	31bfffc4 	addi	r6,r6,-1
 10022a0:	317ff62e 	bgeu	r6,r5,100227c <__alt_data_end+0xff80227c>
 10022a4:	01400434 	movhi	r5,16
 10022a8:	297fffc4 	addi	r5,r5,-1
 10022ac:	28800236 	bltu	r5,r2,10022b8 <__fpclassifyd+0x60>
 10022b0:	008000c4 	movi	r2,3
 10022b4:	f800283a 	ret
 10022b8:	10c00226 	beq	r2,r3,10022c4 <__fpclassifyd+0x6c>
 10022bc:	0005883a 	mov	r2,zero
 10022c0:	f800283a 	ret
 10022c4:	2005003a 	cmpeq	r2,r4,zero
 10022c8:	f800283a 	ret

010022cc <matherr>:
 10022cc:	0005883a 	mov	r2,zero
 10022d0:	f800283a 	ret

010022d4 <__addsf3>:
 10022d4:	defffc04 	addi	sp,sp,-16
 10022d8:	2004d7fa 	srli	r2,r4,31
 10022dc:	280ed5fa 	srli	r7,r5,23
 10022e0:	dc000015 	stw	r16,0(sp)
 10022e4:	01802034 	movhi	r6,128
 10022e8:	2020d5fa 	srli	r16,r4,23
 10022ec:	31bfffc4 	addi	r6,r6,-1
 10022f0:	2810d7fa 	srli	r8,r5,31
 10022f4:	3108703a 	and	r4,r6,r4
 10022f8:	dc800215 	stw	r18,8(sp)
 10022fc:	314c703a 	and	r6,r6,r5
 1002300:	84003fcc 	andi	r16,r16,255
 1002304:	200690fa 	slli	r3,r4,3
 1002308:	dfc00315 	stw	ra,12(sp)
 100230c:	39003fcc 	andi	r4,r7,255
 1002310:	dc400115 	stw	r17,4(sp)
 1002314:	14803fcc 	andi	r18,r2,255
 1002318:	300c90fa 	slli	r6,r6,3
 100231c:	810bc83a 	sub	r5,r16,r4
 1002320:	92004826 	beq	r18,r8,1002444 <__addsf3+0x170>
 1002324:	01406c0e 	bge	zero,r5,10024d8 <__addsf3+0x204>
 1002328:	20001e1e 	bne	r4,zero,10023a4 <__addsf3+0xd0>
 100232c:	3000611e 	bne	r6,zero,10024b4 <__addsf3+0x1e0>
 1002330:	188001cc 	andi	r2,r3,7
 1002334:	10000426 	beq	r2,zero,1002348 <__addsf3+0x74>
 1002338:	190003cc 	andi	r4,r3,15
 100233c:	00800104 	movi	r2,4
 1002340:	20800126 	beq	r4,r2,1002348 <__addsf3+0x74>
 1002344:	18c00104 	addi	r3,r3,4
 1002348:	1901002c 	andhi	r4,r3,1024
 100234c:	9005883a 	mov	r2,r18
 1002350:	20003426 	beq	r4,zero,1002424 <__addsf3+0x150>
 1002354:	81400044 	addi	r5,r16,1
 1002358:	01003fc4 	movi	r4,255
 100235c:	29006926 	beq	r5,r4,1002504 <__addsf3+0x230>
 1002360:	180691ba 	slli	r3,r3,6
 1002364:	1808d27a 	srli	r4,r3,9
 1002368:	29403fcc 	andi	r5,r5,255
 100236c:	280a95fa 	slli	r5,r5,23
 1002370:	10803fcc 	andi	r2,r2,255
 1002374:	00c02034 	movhi	r3,128
 1002378:	100497fa 	slli	r2,r2,31
 100237c:	18ffffc4 	addi	r3,r3,-1
 1002380:	20c6703a 	and	r3,r4,r3
 1002384:	1946b03a 	or	r3,r3,r5
 1002388:	1884b03a 	or	r2,r3,r2
 100238c:	dfc00317 	ldw	ra,12(sp)
 1002390:	dc800217 	ldw	r18,8(sp)
 1002394:	dc400117 	ldw	r17,4(sp)
 1002398:	dc000017 	ldw	r16,0(sp)
 100239c:	dec00404 	addi	sp,sp,16
 10023a0:	f800283a 	ret
 10023a4:	00803fc4 	movi	r2,255
 10023a8:	80bfe126 	beq	r16,r2,1002330 <__alt_data_end+0xff802330>
 10023ac:	31810034 	orhi	r6,r6,1024
 10023b0:	008006c4 	movi	r2,27
 10023b4:	11405b0e 	bge	r2,r5,1002524 <__addsf3+0x250>
 10023b8:	01400044 	movi	r5,1
 10023bc:	1947c83a 	sub	r3,r3,r5
 10023c0:	1881002c 	andhi	r2,r3,1024
 10023c4:	10001426 	beq	r2,zero,1002418 <__addsf3+0x144>
 10023c8:	04410034 	movhi	r17,1024
 10023cc:	8c7fffc4 	addi	r17,r17,-1
 10023d0:	1c62703a 	and	r17,r3,r17
 10023d4:	8809883a 	mov	r4,r17
 10023d8:	1004a740 	call	1004a74 <__clzsi2>
 10023dc:	10bffec4 	addi	r2,r2,-5
 10023e0:	88a2983a 	sll	r17,r17,r2
 10023e4:	14004a16 	blt	r2,r16,1002510 <__addsf3+0x23c>
 10023e8:	140bc83a 	sub	r5,r2,r16
 10023ec:	00c007c4 	movi	r3,31
 10023f0:	1947c83a 	sub	r3,r3,r5
 10023f4:	88c6983a 	sll	r3,r17,r3
 10023f8:	29400044 	addi	r5,r5,1
 10023fc:	8962d83a 	srl	r17,r17,r5
 1002400:	1806c03a 	cmpne	r3,r3,zero
 1002404:	0021883a 	mov	r16,zero
 1002408:	1c46b03a 	or	r3,r3,r17
 100240c:	003fc806 	br	1002330 <__alt_data_end+0xff802330>
 1002410:	1000e526 	beq	r2,zero,10027a8 <__addsf3+0x4d4>
 1002414:	1007883a 	mov	r3,r2
 1002418:	188001cc 	andi	r2,r3,7
 100241c:	103fc61e 	bne	r2,zero,1002338 <__alt_data_end+0xff802338>
 1002420:	9005883a 	mov	r2,r18
 1002424:	01003fc4 	movi	r4,255
 1002428:	1806d0fa 	srli	r3,r3,3
 100242c:	81001a26 	beq	r16,r4,1002498 <__addsf3+0x1c4>
 1002430:	01002034 	movhi	r4,128
 1002434:	213fffc4 	addi	r4,r4,-1
 1002438:	800b883a 	mov	r5,r16
 100243c:	1908703a 	and	r4,r3,r4
 1002440:	003fc906 	br	1002368 <__alt_data_end+0xff802368>
 1002444:	01403e0e 	bge	zero,r5,1002540 <__addsf3+0x26c>
 1002448:	20001e26 	beq	r4,zero,10024c4 <__addsf3+0x1f0>
 100244c:	01003fc4 	movi	r4,255
 1002450:	813fb726 	beq	r16,r4,1002330 <__alt_data_end+0xff802330>
 1002454:	31810034 	orhi	r6,r6,1024
 1002458:	010006c4 	movi	r4,27
 100245c:	2140570e 	bge	r4,r5,10025bc <__addsf3+0x2e8>
 1002460:	01400044 	movi	r5,1
 1002464:	1947883a 	add	r3,r3,r5
 1002468:	1901002c 	andhi	r4,r3,1024
 100246c:	203fea26 	beq	r4,zero,1002418 <__alt_data_end+0xff802418>
 1002470:	84000044 	addi	r16,r16,1
 1002474:	01003fc4 	movi	r4,255
 1002478:	81007526 	beq	r16,r4,1002650 <__addsf3+0x37c>
 100247c:	00bf0034 	movhi	r2,64512
 1002480:	10bfffc4 	addi	r2,r2,-1
 1002484:	1900004c 	andi	r4,r3,1
 1002488:	1886703a 	and	r3,r3,r2
 100248c:	1806d07a 	srli	r3,r3,1
 1002490:	1906b03a 	or	r3,r3,r4
 1002494:	003fa606 	br	1002330 <__alt_data_end+0xff802330>
 1002498:	18001a26 	beq	r3,zero,1002504 <__addsf3+0x230>
 100249c:	19001034 	orhi	r4,r3,64
 10024a0:	00c02034 	movhi	r3,128
 10024a4:	18ffffc4 	addi	r3,r3,-1
 10024a8:	017fffc4 	movi	r5,-1
 10024ac:	20c8703a 	and	r4,r4,r3
 10024b0:	003fad06 	br	1002368 <__alt_data_end+0xff802368>
 10024b4:	297fffc4 	addi	r5,r5,-1
 10024b8:	28002c1e 	bne	r5,zero,100256c <__addsf3+0x298>
 10024bc:	1987c83a 	sub	r3,r3,r6
 10024c0:	003fbf06 	br	10023c0 <__alt_data_end+0xff8023c0>
 10024c4:	303f9a26 	beq	r6,zero,1002330 <__alt_data_end+0xff802330>
 10024c8:	297fffc4 	addi	r5,r5,-1
 10024cc:	28004b1e 	bne	r5,zero,10025fc <__addsf3+0x328>
 10024d0:	1987883a 	add	r3,r3,r6
 10024d4:	003fe406 	br	1002468 <__alt_data_end+0xff802468>
 10024d8:	2800271e 	bne	r5,zero,1002578 <__addsf3+0x2a4>
 10024dc:	80800044 	addi	r2,r16,1
 10024e0:	10803fcc 	andi	r2,r2,255
 10024e4:	01000044 	movi	r4,1
 10024e8:	2080520e 	bge	r4,r2,1002634 <__addsf3+0x360>
 10024ec:	19a3c83a 	sub	r17,r3,r6
 10024f0:	8881002c 	andhi	r2,r17,1024
 10024f4:	10002c26 	beq	r2,zero,10025a8 <__addsf3+0x2d4>
 10024f8:	30e3c83a 	sub	r17,r6,r3
 10024fc:	4025883a 	mov	r18,r8
 1002500:	003fb406 	br	10023d4 <__alt_data_end+0xff8023d4>
 1002504:	017fffc4 	movi	r5,-1
 1002508:	0009883a 	mov	r4,zero
 100250c:	003f9606 	br	1002368 <__alt_data_end+0xff802368>
 1002510:	00ff0034 	movhi	r3,64512
 1002514:	18ffffc4 	addi	r3,r3,-1
 1002518:	80a1c83a 	sub	r16,r16,r2
 100251c:	88c6703a 	and	r3,r17,r3
 1002520:	003f8306 	br	1002330 <__alt_data_end+0xff802330>
 1002524:	00800804 	movi	r2,32
 1002528:	1145c83a 	sub	r2,r2,r5
 100252c:	3084983a 	sll	r2,r6,r2
 1002530:	314cd83a 	srl	r6,r6,r5
 1002534:	100ac03a 	cmpne	r5,r2,zero
 1002538:	298ab03a 	or	r5,r5,r6
 100253c:	003f9f06 	br	10023bc <__alt_data_end+0xff8023bc>
 1002540:	2800451e 	bne	r5,zero,1002658 <__addsf3+0x384>
 1002544:	81000044 	addi	r4,r16,1
 1002548:	21c03fcc 	andi	r7,r4,255
 100254c:	01400044 	movi	r5,1
 1002550:	29c02d0e 	bge	r5,r7,1002608 <__addsf3+0x334>
 1002554:	01403fc4 	movi	r5,255
 1002558:	21403c26 	beq	r4,r5,100264c <__addsf3+0x378>
 100255c:	30c7883a 	add	r3,r6,r3
 1002560:	1806d07a 	srli	r3,r3,1
 1002564:	2021883a 	mov	r16,r4
 1002568:	003f7106 	br	1002330 <__alt_data_end+0xff802330>
 100256c:	00803fc4 	movi	r2,255
 1002570:	80bf8f1e 	bne	r16,r2,10023b0 <__alt_data_end+0xff8023b0>
 1002574:	003f6e06 	br	1002330 <__alt_data_end+0xff802330>
 1002578:	80001726 	beq	r16,zero,10025d8 <__addsf3+0x304>
 100257c:	00803fc4 	movi	r2,255
 1002580:	20801a26 	beq	r4,r2,10025ec <__addsf3+0x318>
 1002584:	014bc83a 	sub	r5,zero,r5
 1002588:	18c10034 	orhi	r3,r3,1024
 100258c:	008006c4 	movi	r2,27
 1002590:	1140430e 	bge	r2,r5,10026a0 <__addsf3+0x3cc>
 1002594:	00c00044 	movi	r3,1
 1002598:	30c7c83a 	sub	r3,r6,r3
 100259c:	2021883a 	mov	r16,r4
 10025a0:	4025883a 	mov	r18,r8
 10025a4:	003f8606 	br	10023c0 <__alt_data_end+0xff8023c0>
 10025a8:	883f8a1e 	bne	r17,zero,10023d4 <__alt_data_end+0xff8023d4>
 10025ac:	0007883a 	mov	r3,zero
 10025b0:	0005883a 	mov	r2,zero
 10025b4:	0021883a 	mov	r16,zero
 10025b8:	003f9a06 	br	1002424 <__alt_data_end+0xff802424>
 10025bc:	01000804 	movi	r4,32
 10025c0:	2149c83a 	sub	r4,r4,r5
 10025c4:	3108983a 	sll	r4,r6,r4
 10025c8:	314cd83a 	srl	r6,r6,r5
 10025cc:	200ac03a 	cmpne	r5,r4,zero
 10025d0:	298ab03a 	or	r5,r5,r6
 10025d4:	003fa306 	br	1002464 <__alt_data_end+0xff802464>
 10025d8:	18000426 	beq	r3,zero,10025ec <__addsf3+0x318>
 10025dc:	014a303a 	nor	r5,zero,r5
 10025e0:	283fed26 	beq	r5,zero,1002598 <__alt_data_end+0xff802598>
 10025e4:	00803fc4 	movi	r2,255
 10025e8:	20bfe81e 	bne	r4,r2,100258c <__alt_data_end+0xff80258c>
 10025ec:	3007883a 	mov	r3,r6
 10025f0:	2021883a 	mov	r16,r4
 10025f4:	4025883a 	mov	r18,r8
 10025f8:	003f4d06 	br	1002330 <__alt_data_end+0xff802330>
 10025fc:	01003fc4 	movi	r4,255
 1002600:	813f951e 	bne	r16,r4,1002458 <__alt_data_end+0xff802458>
 1002604:	003f4a06 	br	1002330 <__alt_data_end+0xff802330>
 1002608:	8000471e 	bne	r16,zero,1002728 <__addsf3+0x454>
 100260c:	18006126 	beq	r3,zero,1002794 <__addsf3+0x4c0>
 1002610:	303f4726 	beq	r6,zero,1002330 <__alt_data_end+0xff802330>
 1002614:	1987883a 	add	r3,r3,r6
 1002618:	1881002c 	andhi	r2,r3,1024
 100261c:	103f7e26 	beq	r2,zero,1002418 <__alt_data_end+0xff802418>
 1002620:	00bf0034 	movhi	r2,64512
 1002624:	10bfffc4 	addi	r2,r2,-1
 1002628:	2821883a 	mov	r16,r5
 100262c:	1886703a 	and	r3,r3,r2
 1002630:	003f3f06 	br	1002330 <__alt_data_end+0xff802330>
 1002634:	8000141e 	bne	r16,zero,1002688 <__addsf3+0x3b4>
 1002638:	1800311e 	bne	r3,zero,1002700 <__addsf3+0x42c>
 100263c:	30004626 	beq	r6,zero,1002758 <__addsf3+0x484>
 1002640:	3007883a 	mov	r3,r6
 1002644:	4025883a 	mov	r18,r8
 1002648:	003f3906 	br	1002330 <__alt_data_end+0xff802330>
 100264c:	2021883a 	mov	r16,r4
 1002650:	0007883a 	mov	r3,zero
 1002654:	003f7306 	br	1002424 <__alt_data_end+0xff802424>
 1002658:	8000181e 	bne	r16,zero,10026bc <__addsf3+0x3e8>
 100265c:	18002f26 	beq	r3,zero,100271c <__addsf3+0x448>
 1002660:	014a303a 	nor	r5,zero,r5
 1002664:	28000526 	beq	r5,zero,100267c <__addsf3+0x3a8>
 1002668:	01c03fc4 	movi	r7,255
 100266c:	21c02b26 	beq	r4,r7,100271c <__addsf3+0x448>
 1002670:	01c006c4 	movi	r7,27
 1002674:	3940400e 	bge	r7,r5,1002778 <__addsf3+0x4a4>
 1002678:	00c00044 	movi	r3,1
 100267c:	1987883a 	add	r3,r3,r6
 1002680:	2021883a 	mov	r16,r4
 1002684:	003f7806 	br	1002468 <__alt_data_end+0xff802468>
 1002688:	1800111e 	bne	r3,zero,10026d0 <__addsf3+0x3fc>
 100268c:	30003526 	beq	r6,zero,1002764 <__addsf3+0x490>
 1002690:	3007883a 	mov	r3,r6
 1002694:	4025883a 	mov	r18,r8
 1002698:	04003fc4 	movi	r16,255
 100269c:	003f2406 	br	1002330 <__alt_data_end+0xff802330>
 10026a0:	00800804 	movi	r2,32
 10026a4:	1145c83a 	sub	r2,r2,r5
 10026a8:	1884983a 	sll	r2,r3,r2
 10026ac:	194ad83a 	srl	r5,r3,r5
 10026b0:	1006c03a 	cmpne	r3,r2,zero
 10026b4:	1946b03a 	or	r3,r3,r5
 10026b8:	003fb706 	br	1002598 <__alt_data_end+0xff802598>
 10026bc:	01c03fc4 	movi	r7,255
 10026c0:	21c01626 	beq	r4,r7,100271c <__addsf3+0x448>
 10026c4:	014bc83a 	sub	r5,zero,r5
 10026c8:	18c10034 	orhi	r3,r3,1024
 10026cc:	003fe806 	br	1002670 <__alt_data_end+0xff802670>
 10026d0:	30001f26 	beq	r6,zero,1002750 <__addsf3+0x47c>
 10026d4:	1806d0fa 	srli	r3,r3,3
 10026d8:	1880102c 	andhi	r2,r3,64
 10026dc:	10000526 	beq	r2,zero,10026f4 <__addsf3+0x420>
 10026e0:	300cd0fa 	srli	r6,r6,3
 10026e4:	3080102c 	andhi	r2,r6,64
 10026e8:	1000021e 	bne	r2,zero,10026f4 <__addsf3+0x420>
 10026ec:	3007883a 	mov	r3,r6
 10026f0:	4025883a 	mov	r18,r8
 10026f4:	180690fa 	slli	r3,r3,3
 10026f8:	04003fc4 	movi	r16,255
 10026fc:	003f0c06 	br	1002330 <__alt_data_end+0xff802330>
 1002700:	303f0b26 	beq	r6,zero,1002330 <__alt_data_end+0xff802330>
 1002704:	1985c83a 	sub	r2,r3,r6
 1002708:	1101002c 	andhi	r4,r2,1024
 100270c:	203f4026 	beq	r4,zero,1002410 <__alt_data_end+0xff802410>
 1002710:	30c7c83a 	sub	r3,r6,r3
 1002714:	4025883a 	mov	r18,r8
 1002718:	003f0506 	br	1002330 <__alt_data_end+0xff802330>
 100271c:	3007883a 	mov	r3,r6
 1002720:	2021883a 	mov	r16,r4
 1002724:	003f0206 	br	1002330 <__alt_data_end+0xff802330>
 1002728:	18001c26 	beq	r3,zero,100279c <__addsf3+0x4c8>
 100272c:	30000826 	beq	r6,zero,1002750 <__addsf3+0x47c>
 1002730:	1806d0fa 	srli	r3,r3,3
 1002734:	1880102c 	andhi	r2,r3,64
 1002738:	103fee26 	beq	r2,zero,10026f4 <__alt_data_end+0xff8026f4>
 100273c:	300cd0fa 	srli	r6,r6,3
 1002740:	3080102c 	andhi	r2,r6,64
 1002744:	103feb1e 	bne	r2,zero,10026f4 <__alt_data_end+0xff8026f4>
 1002748:	3007883a 	mov	r3,r6
 100274c:	003fe906 	br	10026f4 <__alt_data_end+0xff8026f4>
 1002750:	04003fc4 	movi	r16,255
 1002754:	003ef606 	br	1002330 <__alt_data_end+0xff802330>
 1002758:	8007883a 	mov	r3,r16
 100275c:	0005883a 	mov	r2,zero
 1002760:	003f3006 	br	1002424 <__alt_data_end+0xff802424>
 1002764:	00c10034 	movhi	r3,1024
 1002768:	0005883a 	mov	r2,zero
 100276c:	18fffe04 	addi	r3,r3,-8
 1002770:	04003fc4 	movi	r16,255
 1002774:	003f2b06 	br	1002424 <__alt_data_end+0xff802424>
 1002778:	01c00804 	movi	r7,32
 100277c:	394fc83a 	sub	r7,r7,r5
 1002780:	19ce983a 	sll	r7,r3,r7
 1002784:	194ad83a 	srl	r5,r3,r5
 1002788:	3806c03a 	cmpne	r3,r7,zero
 100278c:	1946b03a 	or	r3,r3,r5
 1002790:	003fba06 	br	100267c <__alt_data_end+0xff80267c>
 1002794:	3007883a 	mov	r3,r6
 1002798:	003ee506 	br	1002330 <__alt_data_end+0xff802330>
 100279c:	3007883a 	mov	r3,r6
 10027a0:	04003fc4 	movi	r16,255
 10027a4:	003ee206 	br	1002330 <__alt_data_end+0xff802330>
 10027a8:	0007883a 	mov	r3,zero
 10027ac:	0005883a 	mov	r2,zero
 10027b0:	003f1c06 	br	1002424 <__alt_data_end+0xff802424>

010027b4 <__divsf3>:
 10027b4:	defff504 	addi	sp,sp,-44
 10027b8:	dd000515 	stw	r20,20(sp)
 10027bc:	2028d5fa 	srli	r20,r4,23
 10027c0:	dd400615 	stw	r21,24(sp)
 10027c4:	202ad7fa 	srli	r21,r4,31
 10027c8:	00c02034 	movhi	r3,128
 10027cc:	dcc00415 	stw	r19,16(sp)
 10027d0:	dc800315 	stw	r18,12(sp)
 10027d4:	18ffffc4 	addi	r3,r3,-1
 10027d8:	dfc00a15 	stw	ra,40(sp)
 10027dc:	df000915 	stw	fp,36(sp)
 10027e0:	ddc00815 	stw	r23,32(sp)
 10027e4:	dd800715 	stw	r22,28(sp)
 10027e8:	dc400215 	stw	r17,8(sp)
 10027ec:	dc000115 	stw	r16,4(sp)
 10027f0:	a5003fcc 	andi	r20,r20,255
 10027f4:	1924703a 	and	r18,r3,r4
 10027f8:	acc03fcc 	andi	r19,r21,255
 10027fc:	a0004d26 	beq	r20,zero,1002934 <__divsf3+0x180>
 1002800:	00803fc4 	movi	r2,255
 1002804:	a0802e26 	beq	r20,r2,10028c0 <__divsf3+0x10c>
 1002808:	91002034 	orhi	r4,r18,128
 100280c:	202490fa 	slli	r18,r4,3
 1002810:	a53fe044 	addi	r20,r20,-127
 1002814:	0021883a 	mov	r16,zero
 1002818:	002f883a 	mov	r23,zero
 100281c:	2804d5fa 	srli	r2,r5,23
 1002820:	282cd7fa 	srli	r22,r5,31
 1002824:	00c02034 	movhi	r3,128
 1002828:	18ffffc4 	addi	r3,r3,-1
 100282c:	10803fcc 	andi	r2,r2,255
 1002830:	1962703a 	and	r17,r3,r5
 1002834:	b7003fcc 	andi	fp,r22,255
 1002838:	10004526 	beq	r2,zero,1002950 <__divsf3+0x19c>
 100283c:	00c03fc4 	movi	r3,255
 1002840:	10c04026 	beq	r2,r3,1002944 <__divsf3+0x190>
 1002844:	88c02034 	orhi	r3,r17,128
 1002848:	182290fa 	slli	r17,r3,3
 100284c:	10bfe044 	addi	r2,r2,-127
 1002850:	0009883a 	mov	r4,zero
 1002854:	2420b03a 	or	r16,r4,r16
 1002858:	802090ba 	slli	r16,r16,2
 100285c:	01c04034 	movhi	r7,256
 1002860:	39ca2004 	addi	r7,r7,10368
 1002864:	81e1883a 	add	r16,r16,r7
 1002868:	80c00017 	ldw	r3,0(r16)
 100286c:	ad8af03a 	xor	r5,r21,r22
 1002870:	280d883a 	mov	r6,r5
 1002874:	a085c83a 	sub	r2,r20,r2
 1002878:	29403fcc 	andi	r5,r5,255
 100287c:	1800683a 	jmp	r3
 1002880:	01002a8c 	andi	r4,zero,170
 1002884:	01002a34 	movhi	r4,168
 1002888:	01002a58 	cmpnei	r4,zero,169
 100288c:	01002a20 	cmpeqi	r4,zero,168
 1002890:	01002a58 	cmpnei	r4,zero,169
 1002894:	010028d0 	cmplti	r4,zero,163
 1002898:	01002a58 	cmpnei	r4,zero,169
 100289c:	01002a20 	cmpeqi	r4,zero,168
 10028a0:	01002a34 	movhi	r4,168
 10028a4:	01002a34 	movhi	r4,168
 10028a8:	010028d0 	cmplti	r4,zero,163
 10028ac:	01002a20 	cmpeqi	r4,zero,168
 10028b0:	01002b24 	muli	r4,zero,172
 10028b4:	01002b24 	muli	r4,zero,172
 10028b8:	01002b24 	muli	r4,zero,172
 10028bc:	01002a64 	muli	r4,zero,169
 10028c0:	9000531e 	bne	r18,zero,1002a10 <__divsf3+0x25c>
 10028c4:	04000204 	movi	r16,8
 10028c8:	05c00084 	movi	r23,2
 10028cc:	003fd306 	br	100281c <__alt_data_end+0xff80281c>
 10028d0:	00c02034 	movhi	r3,128
 10028d4:	000d883a 	mov	r6,zero
 10028d8:	18ffffc4 	addi	r3,r3,-1
 10028dc:	013fffc4 	movi	r4,-1
 10028e0:	21003fcc 	andi	r4,r4,255
 10028e4:	200895fa 	slli	r4,r4,23
 10028e8:	30803fcc 	andi	r2,r6,255
 10028ec:	01802034 	movhi	r6,128
 10028f0:	31bfffc4 	addi	r6,r6,-1
 10028f4:	100497fa 	slli	r2,r2,31
 10028f8:	1986703a 	and	r3,r3,r6
 10028fc:	1906b03a 	or	r3,r3,r4
 1002900:	1884b03a 	or	r2,r3,r2
 1002904:	dfc00a17 	ldw	ra,40(sp)
 1002908:	df000917 	ldw	fp,36(sp)
 100290c:	ddc00817 	ldw	r23,32(sp)
 1002910:	dd800717 	ldw	r22,28(sp)
 1002914:	dd400617 	ldw	r21,24(sp)
 1002918:	dd000517 	ldw	r20,20(sp)
 100291c:	dcc00417 	ldw	r19,16(sp)
 1002920:	dc800317 	ldw	r18,12(sp)
 1002924:	dc400217 	ldw	r17,8(sp)
 1002928:	dc000117 	ldw	r16,4(sp)
 100292c:	dec00b04 	addi	sp,sp,44
 1002930:	f800283a 	ret
 1002934:	90002b1e 	bne	r18,zero,10029e4 <__divsf3+0x230>
 1002938:	04000104 	movi	r16,4
 100293c:	05c00044 	movi	r23,1
 1002940:	003fb606 	br	100281c <__alt_data_end+0xff80281c>
 1002944:	8800251e 	bne	r17,zero,10029dc <__divsf3+0x228>
 1002948:	01000084 	movi	r4,2
 100294c:	00000206 	br	1002958 <__divsf3+0x1a4>
 1002950:	88001a1e 	bne	r17,zero,10029bc <__divsf3+0x208>
 1002954:	01000044 	movi	r4,1
 1002958:	2420b03a 	or	r16,r4,r16
 100295c:	802090ba 	slli	r16,r16,2
 1002960:	00c04034 	movhi	r3,256
 1002964:	18ca5f04 	addi	r3,r3,10620
 1002968:	80e1883a 	add	r16,r16,r3
 100296c:	80c00017 	ldw	r3,0(r16)
 1002970:	ad8af03a 	xor	r5,r21,r22
 1002974:	a085c83a 	sub	r2,r20,r2
 1002978:	1800683a 	jmp	r3
 100297c:	01002a34 	movhi	r4,168
 1002980:	01002a34 	movhi	r4,168
 1002984:	01002b84 	movi	r4,174
 1002988:	01002a1c 	xori	r4,zero,168
 100298c:	01002b84 	movi	r4,174
 1002990:	010028d0 	cmplti	r4,zero,163
 1002994:	01002b84 	movi	r4,174
 1002998:	01002a1c 	xori	r4,zero,168
 100299c:	01002a34 	movhi	r4,168
 10029a0:	01002a34 	movhi	r4,168
 10029a4:	010028d0 	cmplti	r4,zero,163
 10029a8:	01002a1c 	xori	r4,zero,168
 10029ac:	01002b24 	muli	r4,zero,172
 10029b0:	01002b24 	muli	r4,zero,172
 10029b4:	01002b24 	muli	r4,zero,172
 10029b8:	01002b50 	cmplti	r4,zero,173
 10029bc:	8809883a 	mov	r4,r17
 10029c0:	1004a740 	call	1004a74 <__clzsi2>
 10029c4:	10fffec4 	addi	r3,r2,-5
 10029c8:	88e2983a 	sll	r17,r17,r3
 10029cc:	00ffe284 	movi	r3,-118
 10029d0:	1885c83a 	sub	r2,r3,r2
 10029d4:	0009883a 	mov	r4,zero
 10029d8:	003f9e06 	br	1002854 <__alt_data_end+0xff802854>
 10029dc:	010000c4 	movi	r4,3
 10029e0:	003f9c06 	br	1002854 <__alt_data_end+0xff802854>
 10029e4:	9009883a 	mov	r4,r18
 10029e8:	d9400015 	stw	r5,0(sp)
 10029ec:	1004a740 	call	1004a74 <__clzsi2>
 10029f0:	10fffec4 	addi	r3,r2,-5
 10029f4:	053fe284 	movi	r20,-118
 10029f8:	90e4983a 	sll	r18,r18,r3
 10029fc:	a0a9c83a 	sub	r20,r20,r2
 1002a00:	0021883a 	mov	r16,zero
 1002a04:	002f883a 	mov	r23,zero
 1002a08:	d9400017 	ldw	r5,0(sp)
 1002a0c:	003f8306 	br	100281c <__alt_data_end+0xff80281c>
 1002a10:	04000304 	movi	r16,12
 1002a14:	05c000c4 	movi	r23,3
 1002a18:	003f8006 	br	100281c <__alt_data_end+0xff80281c>
 1002a1c:	0023883a 	mov	r17,zero
 1002a20:	e027883a 	mov	r19,fp
 1002a24:	202f883a 	mov	r23,r4
 1002a28:	00c00084 	movi	r3,2
 1002a2c:	980b883a 	mov	r5,r19
 1002a30:	b8c0501e 	bne	r23,r3,1002b74 <__divsf3+0x3c0>
 1002a34:	2980004c 	andi	r6,r5,1
 1002a38:	013fffc4 	movi	r4,-1
 1002a3c:	0007883a 	mov	r3,zero
 1002a40:	003fa706 	br	10028e0 <__alt_data_end+0xff8028e0>
 1002a44:	013fe084 	movi	r4,-126
 1002a48:	2089c83a 	sub	r4,r4,r2
 1002a4c:	00c006c4 	movi	r3,27
 1002a50:	1900500e 	bge	r3,r4,1002b94 <__divsf3+0x3e0>
 1002a54:	9980004c 	andi	r6,r19,1
 1002a58:	0009883a 	mov	r4,zero
 1002a5c:	0007883a 	mov	r3,zero
 1002a60:	003f9f06 	br	10028e0 <__alt_data_end+0xff8028e0>
 1002a64:	9080102c 	andhi	r2,r18,64
 1002a68:	10000226 	beq	r2,zero,1002a74 <__divsf3+0x2c0>
 1002a6c:	8880102c 	andhi	r2,r17,64
 1002a70:	10003a26 	beq	r2,zero,1002b5c <__divsf3+0x3a8>
 1002a74:	00802034 	movhi	r2,128
 1002a78:	90c01034 	orhi	r3,r18,64
 1002a7c:	10bfffc4 	addi	r2,r2,-1
 1002a80:	a80d883a 	mov	r6,r21
 1002a84:	1886703a 	and	r3,r3,r2
 1002a88:	003f9406 	br	10028dc <__alt_data_end+0xff8028dc>
 1002a8c:	9006917a 	slli	r3,r18,5
 1002a90:	8822917a 	slli	r17,r17,5
 1002a94:	1c402936 	bltu	r3,r17,1002b3c <__divsf3+0x388>
 1002a98:	1c47c83a 	sub	r3,r3,r17
 1002a9c:	2827883a 	mov	r19,r5
 1002aa0:	01800684 	movi	r6,26
 1002aa4:	01000044 	movi	r4,1
 1002aa8:	180f883a 	mov	r7,r3
 1002aac:	2109883a 	add	r4,r4,r4
 1002ab0:	18c7883a 	add	r3,r3,r3
 1002ab4:	38000116 	blt	r7,zero,1002abc <__divsf3+0x308>
 1002ab8:	1c400236 	bltu	r3,r17,1002ac4 <__divsf3+0x310>
 1002abc:	1c47c83a 	sub	r3,r3,r17
 1002ac0:	21000054 	ori	r4,r4,1
 1002ac4:	31bfffc4 	addi	r6,r6,-1
 1002ac8:	303ff71e 	bne	r6,zero,1002aa8 <__alt_data_end+0xff802aa8>
 1002acc:	1806c03a 	cmpne	r3,r3,zero
 1002ad0:	1922b03a 	or	r17,r3,r4
 1002ad4:	11001fc4 	addi	r4,r2,127
 1002ad8:	013fda0e 	bge	zero,r4,1002a44 <__alt_data_end+0xff802a44>
 1002adc:	88c001cc 	andi	r3,r17,7
 1002ae0:	18000426 	beq	r3,zero,1002af4 <__divsf3+0x340>
 1002ae4:	894003cc 	andi	r5,r17,15
 1002ae8:	00c00104 	movi	r3,4
 1002aec:	28c00126 	beq	r5,r3,1002af4 <__divsf3+0x340>
 1002af0:	88e3883a 	add	r17,r17,r3
 1002af4:	88c2002c 	andhi	r3,r17,2048
 1002af8:	18000426 	beq	r3,zero,1002b0c <__divsf3+0x358>
 1002afc:	11002004 	addi	r4,r2,128
 1002b00:	00be0034 	movhi	r2,63488
 1002b04:	10bfffc4 	addi	r2,r2,-1
 1002b08:	88a2703a 	and	r17,r17,r2
 1002b0c:	00803f84 	movi	r2,254
 1002b10:	1100060e 	bge	r2,r4,1002b2c <__divsf3+0x378>
 1002b14:	9980004c 	andi	r6,r19,1
 1002b18:	013fffc4 	movi	r4,-1
 1002b1c:	0007883a 	mov	r3,zero
 1002b20:	003f6f06 	br	10028e0 <__alt_data_end+0xff8028e0>
 1002b24:	9023883a 	mov	r17,r18
 1002b28:	003fbf06 	br	1002a28 <__alt_data_end+0xff802a28>
 1002b2c:	880691ba 	slli	r3,r17,6
 1002b30:	9980004c 	andi	r6,r19,1
 1002b34:	1806d27a 	srli	r3,r3,9
 1002b38:	003f6906 	br	10028e0 <__alt_data_end+0xff8028e0>
 1002b3c:	10bfffc4 	addi	r2,r2,-1
 1002b40:	2827883a 	mov	r19,r5
 1002b44:	018006c4 	movi	r6,27
 1002b48:	0009883a 	mov	r4,zero
 1002b4c:	003fd606 	br	1002aa8 <__alt_data_end+0xff802aa8>
 1002b50:	9080102c 	andhi	r2,r18,64
 1002b54:	0023883a 	mov	r17,zero
 1002b58:	103fc626 	beq	r2,zero,1002a74 <__alt_data_end+0xff802a74>
 1002b5c:	00802034 	movhi	r2,128
 1002b60:	88c01034 	orhi	r3,r17,64
 1002b64:	10bfffc4 	addi	r2,r2,-1
 1002b68:	b00d883a 	mov	r6,r22
 1002b6c:	1886703a 	and	r3,r3,r2
 1002b70:	003f5a06 	br	10028dc <__alt_data_end+0xff8028dc>
 1002b74:	00c000c4 	movi	r3,3
 1002b78:	b8c01c26 	beq	r23,r3,1002bec <__divsf3+0x438>
 1002b7c:	00c00044 	movi	r3,1
 1002b80:	b8ffd41e 	bne	r23,r3,1002ad4 <__alt_data_end+0xff802ad4>
 1002b84:	2980004c 	andi	r6,r5,1
 1002b88:	0009883a 	mov	r4,zero
 1002b8c:	0007883a 	mov	r3,zero
 1002b90:	003f5306 	br	10028e0 <__alt_data_end+0xff8028e0>
 1002b94:	10802784 	addi	r2,r2,158
 1002b98:	8884983a 	sll	r2,r17,r2
 1002b9c:	8908d83a 	srl	r4,r17,r4
 1002ba0:	1022c03a 	cmpne	r17,r2,zero
 1002ba4:	8908b03a 	or	r4,r17,r4
 1002ba8:	208001cc 	andi	r2,r4,7
 1002bac:	10000426 	beq	r2,zero,1002bc0 <__divsf3+0x40c>
 1002bb0:	20c003cc 	andi	r3,r4,15
 1002bb4:	00800104 	movi	r2,4
 1002bb8:	18800126 	beq	r3,r2,1002bc0 <__divsf3+0x40c>
 1002bbc:	2089883a 	add	r4,r4,r2
 1002bc0:	2081002c 	andhi	r2,r4,1024
 1002bc4:	10000426 	beq	r2,zero,1002bd8 <__divsf3+0x424>
 1002bc8:	9980004c 	andi	r6,r19,1
 1002bcc:	01000044 	movi	r4,1
 1002bd0:	0007883a 	mov	r3,zero
 1002bd4:	003f4206 	br	10028e0 <__alt_data_end+0xff8028e0>
 1002bd8:	200691ba 	slli	r3,r4,6
 1002bdc:	9980004c 	andi	r6,r19,1
 1002be0:	0009883a 	mov	r4,zero
 1002be4:	1806d27a 	srli	r3,r3,9
 1002be8:	003f3d06 	br	10028e0 <__alt_data_end+0xff8028e0>
 1002bec:	00802034 	movhi	r2,128
 1002bf0:	88c01034 	orhi	r3,r17,64
 1002bf4:	10bfffc4 	addi	r2,r2,-1
 1002bf8:	9980004c 	andi	r6,r19,1
 1002bfc:	1886703a 	and	r3,r3,r2
 1002c00:	003f3606 	br	10028dc <__alt_data_end+0xff8028dc>

01002c04 <__mulsf3>:
 1002c04:	defff504 	addi	sp,sp,-44
 1002c08:	dc400215 	stw	r17,8(sp)
 1002c0c:	2022d5fa 	srli	r17,r4,23
 1002c10:	dd400615 	stw	r21,24(sp)
 1002c14:	202ad7fa 	srli	r21,r4,31
 1002c18:	dc000115 	stw	r16,4(sp)
 1002c1c:	04002034 	movhi	r16,128
 1002c20:	df000915 	stw	fp,36(sp)
 1002c24:	dd000515 	stw	r20,20(sp)
 1002c28:	843fffc4 	addi	r16,r16,-1
 1002c2c:	dfc00a15 	stw	ra,40(sp)
 1002c30:	ddc00815 	stw	r23,32(sp)
 1002c34:	dd800715 	stw	r22,28(sp)
 1002c38:	dcc00415 	stw	r19,16(sp)
 1002c3c:	dc800315 	stw	r18,12(sp)
 1002c40:	8c403fcc 	andi	r17,r17,255
 1002c44:	8120703a 	and	r16,r16,r4
 1002c48:	a829883a 	mov	r20,r21
 1002c4c:	af003fcc 	andi	fp,r21,255
 1002c50:	88005026 	beq	r17,zero,1002d94 <__mulsf3+0x190>
 1002c54:	00803fc4 	movi	r2,255
 1002c58:	88802f26 	beq	r17,r2,1002d18 <__mulsf3+0x114>
 1002c5c:	84002034 	orhi	r16,r16,128
 1002c60:	802090fa 	slli	r16,r16,3
 1002c64:	8c7fe044 	addi	r17,r17,-127
 1002c68:	0025883a 	mov	r18,zero
 1002c6c:	002f883a 	mov	r23,zero
 1002c70:	2804d5fa 	srli	r2,r5,23
 1002c74:	282cd7fa 	srli	r22,r5,31
 1002c78:	01002034 	movhi	r4,128
 1002c7c:	213fffc4 	addi	r4,r4,-1
 1002c80:	10803fcc 	andi	r2,r2,255
 1002c84:	2166703a 	and	r19,r4,r5
 1002c88:	b1803fcc 	andi	r6,r22,255
 1002c8c:	10004926 	beq	r2,zero,1002db4 <__mulsf3+0x1b0>
 1002c90:	00c03fc4 	movi	r3,255
 1002c94:	10c04326 	beq	r2,r3,1002da4 <__mulsf3+0x1a0>
 1002c98:	99402034 	orhi	r5,r19,128
 1002c9c:	282690fa 	slli	r19,r5,3
 1002ca0:	10bfe044 	addi	r2,r2,-127
 1002ca4:	000b883a 	mov	r5,zero
 1002ca8:	8885883a 	add	r2,r17,r2
 1002cac:	2c86b03a 	or	r3,r5,r18
 1002cb0:	010003c4 	movi	r4,15
 1002cb4:	adaaf03a 	xor	r21,r21,r22
 1002cb8:	12000044 	addi	r8,r2,1
 1002cbc:	20c06536 	bltu	r4,r3,1002e54 <__mulsf3+0x250>
 1002cc0:	180690ba 	slli	r3,r3,2
 1002cc4:	01004034 	movhi	r4,256
 1002cc8:	210b3604 	addi	r4,r4,11480
 1002ccc:	1907883a 	add	r3,r3,r4
 1002cd0:	18c00017 	ldw	r3,0(r3)
 1002cd4:	1800683a 	jmp	r3
 1002cd8:	01002e54 	movui	r4,185
 1002cdc:	01002f20 	cmpeqi	r4,zero,188
 1002ce0:	01002f20 	cmpeqi	r4,zero,188
 1002ce4:	01002f30 	cmpltui	r4,zero,188
 1002ce8:	01002d28 	cmpgeui	r4,zero,180
 1002cec:	01002d28 	cmpgeui	r4,zero,180
 1002cf0:	01002e40 	call	1002e4 <__alt_mem_onchip_memory2_0+0x1002e4>
 1002cf4:	01002f30 	cmpltui	r4,zero,188
 1002cf8:	01002d28 	cmpgeui	r4,zero,180
 1002cfc:	01002e40 	call	1002e4 <__alt_mem_onchip_memory2_0+0x1002e4>
 1002d00:	01002d28 	cmpgeui	r4,zero,180
 1002d04:	01002f30 	cmpltui	r4,zero,188
 1002d08:	01002d2c 	andhi	r4,zero,180
 1002d0c:	01002d2c 	andhi	r4,zero,180
 1002d10:	01002d2c 	andhi	r4,zero,180
 1002d14:	01002f40 	call	1002f4 <__alt_mem_onchip_memory2_0+0x1002f4>
 1002d18:	8000311e 	bne	r16,zero,1002de0 <__mulsf3+0x1dc>
 1002d1c:	04800204 	movi	r18,8
 1002d20:	05c00084 	movi	r23,2
 1002d24:	003fd206 	br	1002c70 <__alt_data_end+0xff802c70>
 1002d28:	a839883a 	mov	fp,r21
 1002d2c:	00800084 	movi	r2,2
 1002d30:	b880231e 	bne	r23,r2,1002dc0 <__mulsf3+0x1bc>
 1002d34:	e500004c 	andi	r20,fp,1
 1002d38:	00ffffc4 	movi	r3,-1
 1002d3c:	0009883a 	mov	r4,zero
 1002d40:	18c03fcc 	andi	r3,r3,255
 1002d44:	180695fa 	slli	r3,r3,23
 1002d48:	a0803fcc 	andi	r2,r20,255
 1002d4c:	04002034 	movhi	r16,128
 1002d50:	100497fa 	slli	r2,r2,31
 1002d54:	843fffc4 	addi	r16,r16,-1
 1002d58:	2420703a 	and	r16,r4,r16
 1002d5c:	80e0b03a 	or	r16,r16,r3
 1002d60:	8084b03a 	or	r2,r16,r2
 1002d64:	dfc00a17 	ldw	ra,40(sp)
 1002d68:	df000917 	ldw	fp,36(sp)
 1002d6c:	ddc00817 	ldw	r23,32(sp)
 1002d70:	dd800717 	ldw	r22,28(sp)
 1002d74:	dd400617 	ldw	r21,24(sp)
 1002d78:	dd000517 	ldw	r20,20(sp)
 1002d7c:	dcc00417 	ldw	r19,16(sp)
 1002d80:	dc800317 	ldw	r18,12(sp)
 1002d84:	dc400217 	ldw	r17,8(sp)
 1002d88:	dc000117 	ldw	r16,4(sp)
 1002d8c:	dec00b04 	addi	sp,sp,44
 1002d90:	f800283a 	ret
 1002d94:	8000151e 	bne	r16,zero,1002dec <__mulsf3+0x1e8>
 1002d98:	04800104 	movi	r18,4
 1002d9c:	05c00044 	movi	r23,1
 1002da0:	003fb306 	br	1002c70 <__alt_data_end+0xff802c70>
 1002da4:	980b003a 	cmpeq	r5,r19,zero
 1002da8:	00c000c4 	movi	r3,3
 1002dac:	194bc83a 	sub	r5,r3,r5
 1002db0:	003fbd06 	br	1002ca8 <__alt_data_end+0xff802ca8>
 1002db4:	9800181e 	bne	r19,zero,1002e18 <__mulsf3+0x214>
 1002db8:	01400044 	movi	r5,1
 1002dbc:	003fba06 	br	1002ca8 <__alt_data_end+0xff802ca8>
 1002dc0:	008000c4 	movi	r2,3
 1002dc4:	b8809226 	beq	r23,r2,1003010 <__mulsf3+0x40c>
 1002dc8:	00800044 	movi	r2,1
 1002dcc:	b880771e 	bne	r23,r2,1002fac <__mulsf3+0x3a8>
 1002dd0:	e0a8703a 	and	r20,fp,r2
 1002dd4:	0007883a 	mov	r3,zero
 1002dd8:	0009883a 	mov	r4,zero
 1002ddc:	003fd806 	br	1002d40 <__alt_data_end+0xff802d40>
 1002de0:	04800304 	movi	r18,12
 1002de4:	05c000c4 	movi	r23,3
 1002de8:	003fa106 	br	1002c70 <__alt_data_end+0xff802c70>
 1002dec:	8009883a 	mov	r4,r16
 1002df0:	d9400015 	stw	r5,0(sp)
 1002df4:	1004a740 	call	1004a74 <__clzsi2>
 1002df8:	10fffec4 	addi	r3,r2,-5
 1002dfc:	047fe284 	movi	r17,-118
 1002e00:	80e0983a 	sll	r16,r16,r3
 1002e04:	88a3c83a 	sub	r17,r17,r2
 1002e08:	0025883a 	mov	r18,zero
 1002e0c:	002f883a 	mov	r23,zero
 1002e10:	d9400017 	ldw	r5,0(sp)
 1002e14:	003f9606 	br	1002c70 <__alt_data_end+0xff802c70>
 1002e18:	9809883a 	mov	r4,r19
 1002e1c:	d9800015 	stw	r6,0(sp)
 1002e20:	1004a740 	call	1004a74 <__clzsi2>
 1002e24:	10fffec4 	addi	r3,r2,-5
 1002e28:	98e6983a 	sll	r19,r19,r3
 1002e2c:	00ffe284 	movi	r3,-118
 1002e30:	1885c83a 	sub	r2,r3,r2
 1002e34:	000b883a 	mov	r5,zero
 1002e38:	d9800017 	ldw	r6,0(sp)
 1002e3c:	003f9a06 	br	1002ca8 <__alt_data_end+0xff802ca8>
 1002e40:	01002034 	movhi	r4,128
 1002e44:	0029883a 	mov	r20,zero
 1002e48:	213fffc4 	addi	r4,r4,-1
 1002e4c:	00ffffc4 	movi	r3,-1
 1002e50:	003fbb06 	br	1002d40 <__alt_data_end+0xff802d40>
 1002e54:	8006d43a 	srli	r3,r16,16
 1002e58:	9812d43a 	srli	r9,r19,16
 1002e5c:	843fffcc 	andi	r16,r16,65535
 1002e60:	997fffcc 	andi	r5,r19,65535
 1002e64:	2c0f383a 	mul	r7,r5,r16
 1002e68:	28cb383a 	mul	r5,r5,r3
 1002e6c:	4c21383a 	mul	r16,r9,r16
 1002e70:	380cd43a 	srli	r6,r7,16
 1002e74:	48d3383a 	mul	r9,r9,r3
 1002e78:	2c21883a 	add	r16,r5,r16
 1002e7c:	8187883a 	add	r3,r16,r6
 1002e80:	1940022e 	bgeu	r3,r5,1002e8c <__mulsf3+0x288>
 1002e84:	01000074 	movhi	r4,1
 1002e88:	4913883a 	add	r9,r9,r4
 1002e8c:	1808943a 	slli	r4,r3,16
 1002e90:	39ffffcc 	andi	r7,r7,65535
 1002e94:	1806d43a 	srli	r3,r3,16
 1002e98:	21c9883a 	add	r4,r4,r7
 1002e9c:	202091ba 	slli	r16,r4,6
 1002ea0:	48c7883a 	add	r3,r9,r3
 1002ea4:	2008d6ba 	srli	r4,r4,26
 1002ea8:	180691ba 	slli	r3,r3,6
 1002eac:	8020c03a 	cmpne	r16,r16,zero
 1002eb0:	8120b03a 	or	r16,r16,r4
 1002eb4:	80e0b03a 	or	r16,r16,r3
 1002eb8:	80c2002c 	andhi	r3,r16,2048
 1002ebc:	18000426 	beq	r3,zero,1002ed0 <__mulsf3+0x2cc>
 1002ec0:	8006d07a 	srli	r3,r16,1
 1002ec4:	8400004c 	andi	r16,r16,1
 1002ec8:	4005883a 	mov	r2,r8
 1002ecc:	80e0b03a 	or	r16,r16,r3
 1002ed0:	10c01fc4 	addi	r3,r2,127
 1002ed4:	00c02d0e 	bge	zero,r3,1002f8c <__mulsf3+0x388>
 1002ed8:	810001cc 	andi	r4,r16,7
 1002edc:	20000426 	beq	r4,zero,1002ef0 <__mulsf3+0x2ec>
 1002ee0:	814003cc 	andi	r5,r16,15
 1002ee4:	01000104 	movi	r4,4
 1002ee8:	29000126 	beq	r5,r4,1002ef0 <__mulsf3+0x2ec>
 1002eec:	8121883a 	add	r16,r16,r4
 1002ef0:	8102002c 	andhi	r4,r16,2048
 1002ef4:	20000426 	beq	r4,zero,1002f08 <__mulsf3+0x304>
 1002ef8:	10c02004 	addi	r3,r2,128
 1002efc:	00be0034 	movhi	r2,63488
 1002f00:	10bfffc4 	addi	r2,r2,-1
 1002f04:	80a0703a 	and	r16,r16,r2
 1002f08:	00803f84 	movi	r2,254
 1002f0c:	10c01b0e 	bge	r2,r3,1002f7c <__mulsf3+0x378>
 1002f10:	ad00004c 	andi	r20,r21,1
 1002f14:	00ffffc4 	movi	r3,-1
 1002f18:	0009883a 	mov	r4,zero
 1002f1c:	003f8806 	br	1002d40 <__alt_data_end+0xff802d40>
 1002f20:	9821883a 	mov	r16,r19
 1002f24:	a839883a 	mov	fp,r21
 1002f28:	282f883a 	mov	r23,r5
 1002f2c:	003f7f06 	br	1002d2c <__alt_data_end+0xff802d2c>
 1002f30:	9821883a 	mov	r16,r19
 1002f34:	3039883a 	mov	fp,r6
 1002f38:	282f883a 	mov	r23,r5
 1002f3c:	003f7b06 	br	1002d2c <__alt_data_end+0xff802d2c>
 1002f40:	8080102c 	andhi	r2,r16,64
 1002f44:	10000826 	beq	r2,zero,1002f68 <__mulsf3+0x364>
 1002f48:	9880102c 	andhi	r2,r19,64
 1002f4c:	1000061e 	bne	r2,zero,1002f68 <__mulsf3+0x364>
 1002f50:	00802034 	movhi	r2,128
 1002f54:	99001034 	orhi	r4,r19,64
 1002f58:	10bfffc4 	addi	r2,r2,-1
 1002f5c:	b029883a 	mov	r20,r22
 1002f60:	2088703a 	and	r4,r4,r2
 1002f64:	003fb906 	br	1002e4c <__alt_data_end+0xff802e4c>
 1002f68:	00802034 	movhi	r2,128
 1002f6c:	81001034 	orhi	r4,r16,64
 1002f70:	10bfffc4 	addi	r2,r2,-1
 1002f74:	2088703a 	and	r4,r4,r2
 1002f78:	003fb406 	br	1002e4c <__alt_data_end+0xff802e4c>
 1002f7c:	802091ba 	slli	r16,r16,6
 1002f80:	ad00004c 	andi	r20,r21,1
 1002f84:	8008d27a 	srli	r4,r16,9
 1002f88:	003f6d06 	br	1002d40 <__alt_data_end+0xff802d40>
 1002f8c:	00ffe084 	movi	r3,-126
 1002f90:	1887c83a 	sub	r3,r3,r2
 1002f94:	010006c4 	movi	r4,27
 1002f98:	20c0070e 	bge	r4,r3,1002fb8 <__mulsf3+0x3b4>
 1002f9c:	ad00004c 	andi	r20,r21,1
 1002fa0:	0007883a 	mov	r3,zero
 1002fa4:	0009883a 	mov	r4,zero
 1002fa8:	003f6506 	br	1002d40 <__alt_data_end+0xff802d40>
 1002fac:	4005883a 	mov	r2,r8
 1002fb0:	e02b883a 	mov	r21,fp
 1002fb4:	003fc606 	br	1002ed0 <__alt_data_end+0xff802ed0>
 1002fb8:	10802784 	addi	r2,r2,158
 1002fbc:	8084983a 	sll	r2,r16,r2
 1002fc0:	80e0d83a 	srl	r16,r16,r3
 1002fc4:	1004c03a 	cmpne	r2,r2,zero
 1002fc8:	1404b03a 	or	r2,r2,r16
 1002fcc:	10c001cc 	andi	r3,r2,7
 1002fd0:	18000426 	beq	r3,zero,1002fe4 <__mulsf3+0x3e0>
 1002fd4:	110003cc 	andi	r4,r2,15
 1002fd8:	00c00104 	movi	r3,4
 1002fdc:	20c00126 	beq	r4,r3,1002fe4 <__mulsf3+0x3e0>
 1002fe0:	10c5883a 	add	r2,r2,r3
 1002fe4:	10c1002c 	andhi	r3,r2,1024
 1002fe8:	18000426 	beq	r3,zero,1002ffc <__mulsf3+0x3f8>
 1002fec:	ad00004c 	andi	r20,r21,1
 1002ff0:	00c00044 	movi	r3,1
 1002ff4:	0009883a 	mov	r4,zero
 1002ff8:	003f5106 	br	1002d40 <__alt_data_end+0xff802d40>
 1002ffc:	100491ba 	slli	r2,r2,6
 1003000:	ad00004c 	andi	r20,r21,1
 1003004:	0007883a 	mov	r3,zero
 1003008:	1008d27a 	srli	r4,r2,9
 100300c:	003f4c06 	br	1002d40 <__alt_data_end+0xff802d40>
 1003010:	00802034 	movhi	r2,128
 1003014:	81001034 	orhi	r4,r16,64
 1003018:	10bfffc4 	addi	r2,r2,-1
 100301c:	e500004c 	andi	r20,fp,1
 1003020:	2088703a 	and	r4,r4,r2
 1003024:	003f8906 	br	1002e4c <__alt_data_end+0xff802e4c>

01003028 <__subsf3>:
 1003028:	defffc04 	addi	sp,sp,-16
 100302c:	280ed5fa 	srli	r7,r5,23
 1003030:	02002034 	movhi	r8,128
 1003034:	280d883a 	mov	r6,r5
 1003038:	423fffc4 	addi	r8,r8,-1
 100303c:	200ad5fa 	srli	r5,r4,23
 1003040:	dc400115 	stw	r17,4(sp)
 1003044:	2022d7fa 	srli	r17,r4,31
 1003048:	4108703a 	and	r4,r8,r4
 100304c:	dc000015 	stw	r16,0(sp)
 1003050:	4190703a 	and	r8,r8,r6
 1003054:	200690fa 	slli	r3,r4,3
 1003058:	dfc00315 	stw	ra,12(sp)
 100305c:	dc800215 	stw	r18,8(sp)
 1003060:	39c03fcc 	andi	r7,r7,255
 1003064:	01003fc4 	movi	r4,255
 1003068:	8805883a 	mov	r2,r17
 100306c:	2c003fcc 	andi	r16,r5,255
 1003070:	8c403fcc 	andi	r17,r17,255
 1003074:	300cd7fa 	srli	r6,r6,31
 1003078:	401090fa 	slli	r8,r8,3
 100307c:	39006126 	beq	r7,r4,1003204 <__subsf3+0x1dc>
 1003080:	3180005c 	xori	r6,r6,1
 1003084:	89804926 	beq	r17,r6,10031ac <__subsf3+0x184>
 1003088:	81c5c83a 	sub	r2,r16,r7
 100308c:	0080710e 	bge	zero,r2,1003254 <__subsf3+0x22c>
 1003090:	38001e1e 	bne	r7,zero,100310c <__subsf3+0xe4>
 1003094:	4000651e 	bne	r8,zero,100322c <__subsf3+0x204>
 1003098:	188001cc 	andi	r2,r3,7
 100309c:	10000426 	beq	r2,zero,10030b0 <__subsf3+0x88>
 10030a0:	190003cc 	andi	r4,r3,15
 10030a4:	00800104 	movi	r2,4
 10030a8:	20800126 	beq	r4,r2,10030b0 <__subsf3+0x88>
 10030ac:	18c00104 	addi	r3,r3,4
 10030b0:	1901002c 	andhi	r4,r3,1024
 10030b4:	8880004c 	andi	r2,r17,1
 10030b8:	20003426 	beq	r4,zero,100318c <__subsf3+0x164>
 10030bc:	81400044 	addi	r5,r16,1
 10030c0:	01003fc4 	movi	r4,255
 10030c4:	29006e26 	beq	r5,r4,1003280 <__subsf3+0x258>
 10030c8:	180691ba 	slli	r3,r3,6
 10030cc:	1808d27a 	srli	r4,r3,9
 10030d0:	29403fcc 	andi	r5,r5,255
 10030d4:	280a95fa 	slli	r5,r5,23
 10030d8:	10803fcc 	andi	r2,r2,255
 10030dc:	00c02034 	movhi	r3,128
 10030e0:	100497fa 	slli	r2,r2,31
 10030e4:	18ffffc4 	addi	r3,r3,-1
 10030e8:	20c6703a 	and	r3,r4,r3
 10030ec:	1946b03a 	or	r3,r3,r5
 10030f0:	1884b03a 	or	r2,r3,r2
 10030f4:	dfc00317 	ldw	ra,12(sp)
 10030f8:	dc800217 	ldw	r18,8(sp)
 10030fc:	dc400117 	ldw	r17,4(sp)
 1003100:	dc000017 	ldw	r16,0(sp)
 1003104:	dec00404 	addi	sp,sp,16
 1003108:	f800283a 	ret
 100310c:	01003fc4 	movi	r4,255
 1003110:	813fe126 	beq	r16,r4,1003098 <__alt_data_end+0xff803098>
 1003114:	42010034 	orhi	r8,r8,1024
 1003118:	010006c4 	movi	r4,27
 100311c:	2080600e 	bge	r4,r2,10032a0 <__subsf3+0x278>
 1003120:	02000044 	movi	r8,1
 1003124:	1a07c83a 	sub	r3,r3,r8
 1003128:	1881002c 	andhi	r2,r3,1024
 100312c:	10001426 	beq	r2,zero,1003180 <__subsf3+0x158>
 1003130:	04810034 	movhi	r18,1024
 1003134:	94bfffc4 	addi	r18,r18,-1
 1003138:	1ca4703a 	and	r18,r3,r18
 100313c:	9009883a 	mov	r4,r18
 1003140:	1004a740 	call	1004a74 <__clzsi2>
 1003144:	10bffec4 	addi	r2,r2,-5
 1003148:	90a4983a 	sll	r18,r18,r2
 100314c:	14004f16 	blt	r2,r16,100328c <__subsf3+0x264>
 1003150:	140bc83a 	sub	r5,r2,r16
 1003154:	00c007c4 	movi	r3,31
 1003158:	1947c83a 	sub	r3,r3,r5
 100315c:	90c6983a 	sll	r3,r18,r3
 1003160:	29400044 	addi	r5,r5,1
 1003164:	9164d83a 	srl	r18,r18,r5
 1003168:	1806c03a 	cmpne	r3,r3,zero
 100316c:	0021883a 	mov	r16,zero
 1003170:	1c86b03a 	or	r3,r3,r18
 1003174:	003fc806 	br	1003098 <__alt_data_end+0xff803098>
 1003178:	1000e726 	beq	r2,zero,1003518 <__subsf3+0x4f0>
 100317c:	1007883a 	mov	r3,r2
 1003180:	188001cc 	andi	r2,r3,7
 1003184:	103fc61e 	bne	r2,zero,10030a0 <__alt_data_end+0xff8030a0>
 1003188:	8880004c 	andi	r2,r17,1
 100318c:	01003fc4 	movi	r4,255
 1003190:	1806d0fa 	srli	r3,r3,3
 1003194:	81001e26 	beq	r16,r4,1003210 <__subsf3+0x1e8>
 1003198:	01002034 	movhi	r4,128
 100319c:	213fffc4 	addi	r4,r4,-1
 10031a0:	800b883a 	mov	r5,r16
 10031a4:	1908703a 	and	r4,r3,r4
 10031a8:	003fc906 	br	10030d0 <__alt_data_end+0xff8030d0>
 10031ac:	81c9c83a 	sub	r4,r16,r7
 10031b0:	0100420e 	bge	zero,r4,10032bc <__subsf3+0x294>
 10031b4:	38002226 	beq	r7,zero,1003240 <__subsf3+0x218>
 10031b8:	01403fc4 	movi	r5,255
 10031bc:	817fb626 	beq	r16,r5,1003098 <__alt_data_end+0xff803098>
 10031c0:	42010034 	orhi	r8,r8,1024
 10031c4:	014006c4 	movi	r5,27
 10031c8:	2900580e 	bge	r5,r4,100332c <__subsf3+0x304>
 10031cc:	01000044 	movi	r4,1
 10031d0:	1907883a 	add	r3,r3,r4
 10031d4:	1901002c 	andhi	r4,r3,1024
 10031d8:	203fe926 	beq	r4,zero,1003180 <__alt_data_end+0xff803180>
 10031dc:	84000044 	addi	r16,r16,1
 10031e0:	01003fc4 	movi	r4,255
 10031e4:	81007626 	beq	r16,r4,10033c0 <__subsf3+0x398>
 10031e8:	00bf0034 	movhi	r2,64512
 10031ec:	10bfffc4 	addi	r2,r2,-1
 10031f0:	1900004c 	andi	r4,r3,1
 10031f4:	1886703a 	and	r3,r3,r2
 10031f8:	1806d07a 	srli	r3,r3,1
 10031fc:	1906b03a 	or	r3,r3,r4
 1003200:	003fa506 	br	1003098 <__alt_data_end+0xff803098>
 1003204:	403f9e26 	beq	r8,zero,1003080 <__alt_data_end+0xff803080>
 1003208:	31803fcc 	andi	r6,r6,255
 100320c:	003f9d06 	br	1003084 <__alt_data_end+0xff803084>
 1003210:	18001b26 	beq	r3,zero,1003280 <__subsf3+0x258>
 1003214:	19001034 	orhi	r4,r3,64
 1003218:	00c02034 	movhi	r3,128
 100321c:	18ffffc4 	addi	r3,r3,-1
 1003220:	017fffc4 	movi	r5,-1
 1003224:	20c8703a 	and	r4,r4,r3
 1003228:	003fa906 	br	10030d0 <__alt_data_end+0xff8030d0>
 100322c:	10bfffc4 	addi	r2,r2,-1
 1003230:	103fbc26 	beq	r2,zero,1003124 <__alt_data_end+0xff803124>
 1003234:	01003fc4 	movi	r4,255
 1003238:	813fb71e 	bne	r16,r4,1003118 <__alt_data_end+0xff803118>
 100323c:	003f9606 	br	1003098 <__alt_data_end+0xff803098>
 1003240:	403f9526 	beq	r8,zero,1003098 <__alt_data_end+0xff803098>
 1003244:	213fffc4 	addi	r4,r4,-1
 1003248:	2000481e 	bne	r4,zero,100336c <__subsf3+0x344>
 100324c:	1a07883a 	add	r3,r3,r8
 1003250:	003fe006 	br	10031d4 <__alt_data_end+0xff8031d4>
 1003254:	1000241e 	bne	r2,zero,10032e8 <__subsf3+0x2c0>
 1003258:	80800044 	addi	r2,r16,1
 100325c:	10803fcc 	andi	r2,r2,255
 1003260:	01000044 	movi	r4,1
 1003264:	20804f0e 	bge	r4,r2,10033a4 <__subsf3+0x37c>
 1003268:	1a25c83a 	sub	r18,r3,r8
 100326c:	9081002c 	andhi	r2,r18,1024
 1003270:	10002926 	beq	r2,zero,1003318 <__subsf3+0x2f0>
 1003274:	40e5c83a 	sub	r18,r8,r3
 1003278:	3023883a 	mov	r17,r6
 100327c:	003faf06 	br	100313c <__alt_data_end+0xff80313c>
 1003280:	017fffc4 	movi	r5,-1
 1003284:	0009883a 	mov	r4,zero
 1003288:	003f9106 	br	10030d0 <__alt_data_end+0xff8030d0>
 100328c:	00ff0034 	movhi	r3,64512
 1003290:	18ffffc4 	addi	r3,r3,-1
 1003294:	80a1c83a 	sub	r16,r16,r2
 1003298:	90c6703a 	and	r3,r18,r3
 100329c:	003f7e06 	br	1003098 <__alt_data_end+0xff803098>
 10032a0:	01000804 	movi	r4,32
 10032a4:	2089c83a 	sub	r4,r4,r2
 10032a8:	4108983a 	sll	r4,r8,r4
 10032ac:	4090d83a 	srl	r8,r8,r2
 10032b0:	2004c03a 	cmpne	r2,r4,zero
 10032b4:	1210b03a 	or	r8,r2,r8
 10032b8:	003f9a06 	br	1003124 <__alt_data_end+0xff803124>
 10032bc:	2000421e 	bne	r4,zero,10033c8 <__subsf3+0x3a0>
 10032c0:	81000044 	addi	r4,r16,1
 10032c4:	21803fcc 	andi	r6,r4,255
 10032c8:	01400044 	movi	r5,1
 10032cc:	29802a0e 	bge	r5,r6,1003378 <__subsf3+0x350>
 10032d0:	01403fc4 	movi	r5,255
 10032d4:	21403926 	beq	r4,r5,10033bc <__subsf3+0x394>
 10032d8:	40c7883a 	add	r3,r8,r3
 10032dc:	1806d07a 	srli	r3,r3,1
 10032e0:	2021883a 	mov	r16,r4
 10032e4:	003f6c06 	br	1003098 <__alt_data_end+0xff803098>
 10032e8:	80001726 	beq	r16,zero,1003348 <__subsf3+0x320>
 10032ec:	01003fc4 	movi	r4,255
 10032f0:	39001a26 	beq	r7,r4,100335c <__subsf3+0x334>
 10032f4:	0085c83a 	sub	r2,zero,r2
 10032f8:	18c10034 	orhi	r3,r3,1024
 10032fc:	010006c4 	movi	r4,27
 1003300:	2080430e 	bge	r4,r2,1003410 <__subsf3+0x3e8>
 1003304:	00c00044 	movi	r3,1
 1003308:	40c7c83a 	sub	r3,r8,r3
 100330c:	3821883a 	mov	r16,r7
 1003310:	3023883a 	mov	r17,r6
 1003314:	003f8406 	br	1003128 <__alt_data_end+0xff803128>
 1003318:	903f881e 	bne	r18,zero,100313c <__alt_data_end+0xff80313c>
 100331c:	0007883a 	mov	r3,zero
 1003320:	0005883a 	mov	r2,zero
 1003324:	0021883a 	mov	r16,zero
 1003328:	003f9806 	br	100318c <__alt_data_end+0xff80318c>
 100332c:	01400804 	movi	r5,32
 1003330:	290bc83a 	sub	r5,r5,r4
 1003334:	414a983a 	sll	r5,r8,r5
 1003338:	4110d83a 	srl	r8,r8,r4
 100333c:	2808c03a 	cmpne	r4,r5,zero
 1003340:	2208b03a 	or	r4,r4,r8
 1003344:	003fa206 	br	10031d0 <__alt_data_end+0xff8031d0>
 1003348:	18000426 	beq	r3,zero,100335c <__subsf3+0x334>
 100334c:	0084303a 	nor	r2,zero,r2
 1003350:	103fed26 	beq	r2,zero,1003308 <__alt_data_end+0xff803308>
 1003354:	01003fc4 	movi	r4,255
 1003358:	393fe81e 	bne	r7,r4,10032fc <__alt_data_end+0xff8032fc>
 100335c:	4007883a 	mov	r3,r8
 1003360:	3821883a 	mov	r16,r7
 1003364:	3023883a 	mov	r17,r6
 1003368:	003f4b06 	br	1003098 <__alt_data_end+0xff803098>
 100336c:	01403fc4 	movi	r5,255
 1003370:	817f941e 	bne	r16,r5,10031c4 <__alt_data_end+0xff8031c4>
 1003374:	003f4806 	br	1003098 <__alt_data_end+0xff803098>
 1003378:	8000471e 	bne	r16,zero,1003498 <__subsf3+0x470>
 100337c:	18006126 	beq	r3,zero,1003504 <__subsf3+0x4dc>
 1003380:	403f4526 	beq	r8,zero,1003098 <__alt_data_end+0xff803098>
 1003384:	1a07883a 	add	r3,r3,r8
 1003388:	1881002c 	andhi	r2,r3,1024
 100338c:	103f7c26 	beq	r2,zero,1003180 <__alt_data_end+0xff803180>
 1003390:	00bf0034 	movhi	r2,64512
 1003394:	10bfffc4 	addi	r2,r2,-1
 1003398:	2821883a 	mov	r16,r5
 100339c:	1886703a 	and	r3,r3,r2
 10033a0:	003f3d06 	br	1003098 <__alt_data_end+0xff803098>
 10033a4:	8000141e 	bne	r16,zero,10033f8 <__subsf3+0x3d0>
 10033a8:	1800311e 	bne	r3,zero,1003470 <__subsf3+0x448>
 10033ac:	40004626 	beq	r8,zero,10034c8 <__subsf3+0x4a0>
 10033b0:	4007883a 	mov	r3,r8
 10033b4:	3023883a 	mov	r17,r6
 10033b8:	003f3706 	br	1003098 <__alt_data_end+0xff803098>
 10033bc:	2021883a 	mov	r16,r4
 10033c0:	0007883a 	mov	r3,zero
 10033c4:	003f7106 	br	100318c <__alt_data_end+0xff80318c>
 10033c8:	8000181e 	bne	r16,zero,100342c <__subsf3+0x404>
 10033cc:	18002f26 	beq	r3,zero,100348c <__subsf3+0x464>
 10033d0:	0108303a 	nor	r4,zero,r4
 10033d4:	20000526 	beq	r4,zero,10033ec <__subsf3+0x3c4>
 10033d8:	01403fc4 	movi	r5,255
 10033dc:	39402b26 	beq	r7,r5,100348c <__subsf3+0x464>
 10033e0:	014006c4 	movi	r5,27
 10033e4:	2900400e 	bge	r5,r4,10034e8 <__subsf3+0x4c0>
 10033e8:	00c00044 	movi	r3,1
 10033ec:	1a07883a 	add	r3,r3,r8
 10033f0:	3821883a 	mov	r16,r7
 10033f4:	003f7706 	br	10031d4 <__alt_data_end+0xff8031d4>
 10033f8:	1800111e 	bne	r3,zero,1003440 <__subsf3+0x418>
 10033fc:	40003526 	beq	r8,zero,10034d4 <__subsf3+0x4ac>
 1003400:	4007883a 	mov	r3,r8
 1003404:	3023883a 	mov	r17,r6
 1003408:	04003fc4 	movi	r16,255
 100340c:	003f2206 	br	1003098 <__alt_data_end+0xff803098>
 1003410:	01000804 	movi	r4,32
 1003414:	2089c83a 	sub	r4,r4,r2
 1003418:	1908983a 	sll	r4,r3,r4
 100341c:	1884d83a 	srl	r2,r3,r2
 1003420:	2006c03a 	cmpne	r3,r4,zero
 1003424:	1886b03a 	or	r3,r3,r2
 1003428:	003fb706 	br	1003308 <__alt_data_end+0xff803308>
 100342c:	01403fc4 	movi	r5,255
 1003430:	39401626 	beq	r7,r5,100348c <__subsf3+0x464>
 1003434:	0109c83a 	sub	r4,zero,r4
 1003438:	18c10034 	orhi	r3,r3,1024
 100343c:	003fe806 	br	10033e0 <__alt_data_end+0xff8033e0>
 1003440:	40001f26 	beq	r8,zero,10034c0 <__subsf3+0x498>
 1003444:	1806d0fa 	srli	r3,r3,3
 1003448:	1880102c 	andhi	r2,r3,64
 100344c:	10000526 	beq	r2,zero,1003464 <__subsf3+0x43c>
 1003450:	4010d0fa 	srli	r8,r8,3
 1003454:	4080102c 	andhi	r2,r8,64
 1003458:	1000021e 	bne	r2,zero,1003464 <__subsf3+0x43c>
 100345c:	4007883a 	mov	r3,r8
 1003460:	3023883a 	mov	r17,r6
 1003464:	180690fa 	slli	r3,r3,3
 1003468:	04003fc4 	movi	r16,255
 100346c:	003f0a06 	br	1003098 <__alt_data_end+0xff803098>
 1003470:	403f0926 	beq	r8,zero,1003098 <__alt_data_end+0xff803098>
 1003474:	1a05c83a 	sub	r2,r3,r8
 1003478:	1101002c 	andhi	r4,r2,1024
 100347c:	203f3e26 	beq	r4,zero,1003178 <__alt_data_end+0xff803178>
 1003480:	40c7c83a 	sub	r3,r8,r3
 1003484:	3023883a 	mov	r17,r6
 1003488:	003f0306 	br	1003098 <__alt_data_end+0xff803098>
 100348c:	4007883a 	mov	r3,r8
 1003490:	3821883a 	mov	r16,r7
 1003494:	003f0006 	br	1003098 <__alt_data_end+0xff803098>
 1003498:	18001c26 	beq	r3,zero,100350c <__subsf3+0x4e4>
 100349c:	40000826 	beq	r8,zero,10034c0 <__subsf3+0x498>
 10034a0:	1806d0fa 	srli	r3,r3,3
 10034a4:	1880102c 	andhi	r2,r3,64
 10034a8:	103fee26 	beq	r2,zero,1003464 <__alt_data_end+0xff803464>
 10034ac:	4010d0fa 	srli	r8,r8,3
 10034b0:	4080102c 	andhi	r2,r8,64
 10034b4:	103feb1e 	bne	r2,zero,1003464 <__alt_data_end+0xff803464>
 10034b8:	4007883a 	mov	r3,r8
 10034bc:	003fe906 	br	1003464 <__alt_data_end+0xff803464>
 10034c0:	04003fc4 	movi	r16,255
 10034c4:	003ef406 	br	1003098 <__alt_data_end+0xff803098>
 10034c8:	8007883a 	mov	r3,r16
 10034cc:	0005883a 	mov	r2,zero
 10034d0:	003f2e06 	br	100318c <__alt_data_end+0xff80318c>
 10034d4:	00c10034 	movhi	r3,1024
 10034d8:	0005883a 	mov	r2,zero
 10034dc:	18fffe04 	addi	r3,r3,-8
 10034e0:	04003fc4 	movi	r16,255
 10034e4:	003f2906 	br	100318c <__alt_data_end+0xff80318c>
 10034e8:	01400804 	movi	r5,32
 10034ec:	290bc83a 	sub	r5,r5,r4
 10034f0:	194a983a 	sll	r5,r3,r5
 10034f4:	1908d83a 	srl	r4,r3,r4
 10034f8:	2806c03a 	cmpne	r3,r5,zero
 10034fc:	1906b03a 	or	r3,r3,r4
 1003500:	003fba06 	br	10033ec <__alt_data_end+0xff8033ec>
 1003504:	4007883a 	mov	r3,r8
 1003508:	003ee306 	br	1003098 <__alt_data_end+0xff803098>
 100350c:	4007883a 	mov	r3,r8
 1003510:	04003fc4 	movi	r16,255
 1003514:	003ee006 	br	1003098 <__alt_data_end+0xff803098>
 1003518:	0007883a 	mov	r3,zero
 100351c:	0005883a 	mov	r2,zero
 1003520:	003f1a06 	br	100318c <__alt_data_end+0xff80318c>

01003524 <__fixsfsi>:
 1003524:	2006d5fa 	srli	r3,r4,23
 1003528:	00802034 	movhi	r2,128
 100352c:	10bfffc4 	addi	r2,r2,-1
 1003530:	18c03fcc 	andi	r3,r3,255
 1003534:	01401f84 	movi	r5,126
 1003538:	1104703a 	and	r2,r2,r4
 100353c:	2008d7fa 	srli	r4,r4,31
 1003540:	28c0110e 	bge	r5,r3,1003588 <__fixsfsi+0x64>
 1003544:	01402744 	movi	r5,157
 1003548:	28c00b16 	blt	r5,r3,1003578 <__fixsfsi+0x54>
 100354c:	01402544 	movi	r5,149
 1003550:	10802034 	orhi	r2,r2,128
 1003554:	28c00e16 	blt	r5,r3,1003590 <__fixsfsi+0x6c>
 1003558:	01402584 	movi	r5,150
 100355c:	28c7c83a 	sub	r3,r5,r3
 1003560:	10c6d83a 	srl	r3,r2,r3
 1003564:	21003fcc 	andi	r4,r4,255
 1003568:	0105c83a 	sub	r2,zero,r4
 100356c:	1886f03a 	xor	r3,r3,r2
 1003570:	1905883a 	add	r2,r3,r4
 1003574:	f800283a 	ret
 1003578:	00a00034 	movhi	r2,32768
 100357c:	10bfffc4 	addi	r2,r2,-1
 1003580:	2085883a 	add	r2,r4,r2
 1003584:	f800283a 	ret
 1003588:	0005883a 	mov	r2,zero
 100358c:	f800283a 	ret
 1003590:	18ffda84 	addi	r3,r3,-150
 1003594:	10c6983a 	sll	r3,r2,r3
 1003598:	003ff206 	br	1003564 <__alt_data_end+0xff803564>

0100359c <__floatsisf>:
 100359c:	defffd04 	addi	sp,sp,-12
 10035a0:	dc000015 	stw	r16,0(sp)
 10035a4:	dfc00215 	stw	ra,8(sp)
 10035a8:	dc400115 	stw	r17,4(sp)
 10035ac:	2021883a 	mov	r16,r4
 10035b0:	20003a26 	beq	r4,zero,100369c <__floatsisf+0x100>
 10035b4:	2022d7fa 	srli	r17,r4,31
 10035b8:	88000126 	beq	r17,zero,10035c0 <__floatsisf+0x24>
 10035bc:	0121c83a 	sub	r16,zero,r4
 10035c0:	8009883a 	mov	r4,r16
 10035c4:	1004a740 	call	1004a74 <__clzsi2>
 10035c8:	00c02784 	movi	r3,158
 10035cc:	1887c83a 	sub	r3,r3,r2
 10035d0:	01802584 	movi	r6,150
 10035d4:	800b883a 	mov	r5,r16
 10035d8:	30c01616 	blt	r6,r3,1003634 <__floatsisf+0x98>
 10035dc:	01000204 	movi	r4,8
 10035e0:	2080020e 	bge	r4,r2,10035ec <__floatsisf+0x50>
 10035e4:	10bffe04 	addi	r2,r2,-8
 10035e8:	80a0983a 	sll	r16,r16,r2
 10035ec:	00802034 	movhi	r2,128
 10035f0:	10bfffc4 	addi	r2,r2,-1
 10035f4:	8809883a 	mov	r4,r17
 10035f8:	80a0703a 	and	r16,r16,r2
 10035fc:	18803fcc 	andi	r2,r3,255
 1003600:	100695fa 	slli	r3,r2,23
 1003604:	20803fcc 	andi	r2,r4,255
 1003608:	100897fa 	slli	r4,r2,31
 100360c:	00802034 	movhi	r2,128
 1003610:	10bfffc4 	addi	r2,r2,-1
 1003614:	8084703a 	and	r2,r16,r2
 1003618:	10c4b03a 	or	r2,r2,r3
 100361c:	1104b03a 	or	r2,r2,r4
 1003620:	dfc00217 	ldw	ra,8(sp)
 1003624:	dc400117 	ldw	r17,4(sp)
 1003628:	dc000017 	ldw	r16,0(sp)
 100362c:	dec00304 	addi	sp,sp,12
 1003630:	f800283a 	ret
 1003634:	01002644 	movi	r4,153
 1003638:	20c01c16 	blt	r4,r3,10036ac <__floatsisf+0x110>
 100363c:	01000144 	movi	r4,5
 1003640:	2080020e 	bge	r4,r2,100364c <__floatsisf+0xb0>
 1003644:	113ffec4 	addi	r4,r2,-5
 1003648:	290a983a 	sll	r5,r5,r4
 100364c:	043f0034 	movhi	r16,64512
 1003650:	843fffc4 	addi	r16,r16,-1
 1003654:	298001cc 	andi	r6,r5,7
 1003658:	2c20703a 	and	r16,r5,r16
 100365c:	30000426 	beq	r6,zero,1003670 <__floatsisf+0xd4>
 1003660:	294003cc 	andi	r5,r5,15
 1003664:	01000104 	movi	r4,4
 1003668:	29000126 	beq	r5,r4,1003670 <__floatsisf+0xd4>
 100366c:	8121883a 	add	r16,r16,r4
 1003670:	8101002c 	andhi	r4,r16,1024
 1003674:	20000526 	beq	r4,zero,100368c <__floatsisf+0xf0>
 1003678:	00c027c4 	movi	r3,159
 100367c:	1887c83a 	sub	r3,r3,r2
 1003680:	00bf0034 	movhi	r2,64512
 1003684:	10bfffc4 	addi	r2,r2,-1
 1003688:	80a0703a 	and	r16,r16,r2
 100368c:	802091ba 	slli	r16,r16,6
 1003690:	8809883a 	mov	r4,r17
 1003694:	8020d27a 	srli	r16,r16,9
 1003698:	003fd806 	br	10035fc <__alt_data_end+0xff8035fc>
 100369c:	0009883a 	mov	r4,zero
 10036a0:	0007883a 	mov	r3,zero
 10036a4:	0021883a 	mov	r16,zero
 10036a8:	003fd406 	br	10035fc <__alt_data_end+0xff8035fc>
 10036ac:	01800144 	movi	r6,5
 10036b0:	110006c4 	addi	r4,r2,27
 10036b4:	8108983a 	sll	r4,r16,r4
 10036b8:	308fc83a 	sub	r7,r6,r2
 10036bc:	81cad83a 	srl	r5,r16,r7
 10036c0:	2008c03a 	cmpne	r4,r4,zero
 10036c4:	214ab03a 	or	r5,r4,r5
 10036c8:	30bfe00e 	bge	r6,r2,100364c <__alt_data_end+0xff80364c>
 10036cc:	003fdd06 	br	1003644 <__alt_data_end+0xff803644>

010036d0 <__divdf3>:
 10036d0:	defff204 	addi	sp,sp,-56
 10036d4:	dd000815 	stw	r20,32(sp)
 10036d8:	2828d53a 	srli	r20,r5,20
 10036dc:	dd800a15 	stw	r22,40(sp)
 10036e0:	282cd7fa 	srli	r22,r5,31
 10036e4:	dc000415 	stw	r16,16(sp)
 10036e8:	04000434 	movhi	r16,16
 10036ec:	df000c15 	stw	fp,48(sp)
 10036f0:	dcc00715 	stw	r19,28(sp)
 10036f4:	dc800615 	stw	r18,24(sp)
 10036f8:	dc400515 	stw	r17,20(sp)
 10036fc:	843fffc4 	addi	r16,r16,-1
 1003700:	dfc00d15 	stw	ra,52(sp)
 1003704:	ddc00b15 	stw	r23,44(sp)
 1003708:	dd400915 	stw	r21,36(sp)
 100370c:	a501ffcc 	andi	r20,r20,2047
 1003710:	2025883a 	mov	r18,r4
 1003714:	2027883a 	mov	r19,r4
 1003718:	2c22703a 	and	r17,r5,r16
 100371c:	b7003fcc 	andi	fp,r22,255
 1003720:	a0005e26 	beq	r20,zero,100389c <__divdf3+0x1cc>
 1003724:	0081ffc4 	movi	r2,2047
 1003728:	a0803526 	beq	r20,r2,1003800 <__divdf3+0x130>
 100372c:	8c000434 	orhi	r16,r17,16
 1003730:	2004d77a 	srli	r2,r4,29
 1003734:	802090fa 	slli	r16,r16,3
 1003738:	202690fa 	slli	r19,r4,3
 100373c:	a53f0044 	addi	r20,r20,-1023
 1003740:	80a2b03a 	or	r17,r16,r2
 1003744:	0025883a 	mov	r18,zero
 1003748:	0011883a 	mov	r8,zero
 100374c:	380ad53a 	srli	r5,r7,20
 1003750:	382ed7fa 	srli	r23,r7,31
 1003754:	04000434 	movhi	r16,16
 1003758:	843fffc4 	addi	r16,r16,-1
 100375c:	2941ffcc 	andi	r5,r5,2047
 1003760:	302b883a 	mov	r21,r6
 1003764:	3c20703a 	and	r16,r7,r16
 1003768:	ba403fcc 	andi	r9,r23,255
 100376c:	28006726 	beq	r5,zero,100390c <__divdf3+0x23c>
 1003770:	0081ffc4 	movi	r2,2047
 1003774:	28805f26 	beq	r5,r2,10038f4 <__divdf3+0x224>
 1003778:	84000434 	orhi	r16,r16,16
 100377c:	3004d77a 	srli	r2,r6,29
 1003780:	802090fa 	slli	r16,r16,3
 1003784:	302a90fa 	slli	r21,r6,3
 1003788:	297f0044 	addi	r5,r5,-1023
 100378c:	80a0b03a 	or	r16,r16,r2
 1003790:	000f883a 	mov	r7,zero
 1003794:	3c86b03a 	or	r3,r7,r18
 1003798:	180690ba 	slli	r3,r3,2
 100379c:	00804034 	movhi	r2,256
 10037a0:	108df004 	addi	r2,r2,14272
 10037a4:	1887883a 	add	r3,r3,r2
 10037a8:	18c00017 	ldw	r3,0(r3)
 10037ac:	b5c8f03a 	xor	r4,r22,r23
 10037b0:	200d883a 	mov	r6,r4
 10037b4:	24803fcc 	andi	r18,r4,255
 10037b8:	a169c83a 	sub	r20,r20,r5
 10037bc:	1800683a 	jmp	r3
 10037c0:	01003a08 	cmpgei	r4,zero,232
 10037c4:	01003838 	rdprs	r4,zero,224
 10037c8:	010039cc 	andi	r4,zero,231
 10037cc:	0100381c 	xori	r4,zero,224
 10037d0:	010039cc 	andi	r4,zero,231
 10037d4:	010039a0 	cmpeqi	r4,zero,230
 10037d8:	010039cc 	andi	r4,zero,231
 10037dc:	0100381c 	xori	r4,zero,224
 10037e0:	01003838 	rdprs	r4,zero,224
 10037e4:	01003838 	rdprs	r4,zero,224
 10037e8:	010039a0 	cmpeqi	r4,zero,230
 10037ec:	0100381c 	xori	r4,zero,224
 10037f0:	0100382c 	andhi	r4,zero,224
 10037f4:	0100382c 	andhi	r4,zero,224
 10037f8:	0100382c 	andhi	r4,zero,224
 10037fc:	010039dc 	xori	r4,zero,231
 1003800:	8904b03a 	or	r2,r17,r4
 1003804:	1000631e 	bne	r2,zero,1003994 <__divdf3+0x2c4>
 1003808:	04800204 	movi	r18,8
 100380c:	0023883a 	mov	r17,zero
 1003810:	0027883a 	mov	r19,zero
 1003814:	02000084 	movi	r8,2
 1003818:	003fcc06 	br	100374c <__alt_data_end+0xff80374c>
 100381c:	8023883a 	mov	r17,r16
 1003820:	a827883a 	mov	r19,r21
 1003824:	4839883a 	mov	fp,r9
 1003828:	3811883a 	mov	r8,r7
 100382c:	00800084 	movi	r2,2
 1003830:	40812a1e 	bne	r8,r2,1003cdc <__divdf3+0x60c>
 1003834:	e025883a 	mov	r18,fp
 1003838:	9180004c 	andi	r6,r18,1
 100383c:	0101ffc4 	movi	r4,2047
 1003840:	000b883a 	mov	r5,zero
 1003844:	0027883a 	mov	r19,zero
 1003848:	2008953a 	slli	r4,r4,20
 100384c:	30c03fcc 	andi	r3,r6,255
 1003850:	04000434 	movhi	r16,16
 1003854:	180697fa 	slli	r3,r3,31
 1003858:	843fffc4 	addi	r16,r16,-1
 100385c:	2c20703a 	and	r16,r5,r16
 1003860:	8120b03a 	or	r16,r16,r4
 1003864:	80c6b03a 	or	r3,r16,r3
 1003868:	9805883a 	mov	r2,r19
 100386c:	dfc00d17 	ldw	ra,52(sp)
 1003870:	df000c17 	ldw	fp,48(sp)
 1003874:	ddc00b17 	ldw	r23,44(sp)
 1003878:	dd800a17 	ldw	r22,40(sp)
 100387c:	dd400917 	ldw	r21,36(sp)
 1003880:	dd000817 	ldw	r20,32(sp)
 1003884:	dcc00717 	ldw	r19,28(sp)
 1003888:	dc800617 	ldw	r18,24(sp)
 100388c:	dc400517 	ldw	r17,20(sp)
 1003890:	dc000417 	ldw	r16,16(sp)
 1003894:	dec00e04 	addi	sp,sp,56
 1003898:	f800283a 	ret
 100389c:	8904b03a 	or	r2,r17,r4
 10038a0:	10003726 	beq	r2,zero,1003980 <__divdf3+0x2b0>
 10038a4:	88011c26 	beq	r17,zero,1003d18 <__divdf3+0x648>
 10038a8:	8809883a 	mov	r4,r17
 10038ac:	d9800315 	stw	r6,12(sp)
 10038b0:	d9c00115 	stw	r7,4(sp)
 10038b4:	1004a740 	call	1004a74 <__clzsi2>
 10038b8:	d9800317 	ldw	r6,12(sp)
 10038bc:	d9c00117 	ldw	r7,4(sp)
 10038c0:	1007883a 	mov	r3,r2
 10038c4:	01000a04 	movi	r4,40
 10038c8:	1cfffe04 	addi	r19,r3,-8
 10038cc:	20c9c83a 	sub	r4,r4,r3
 10038d0:	8cca983a 	sll	r5,r17,r19
 10038d4:	9108d83a 	srl	r4,r18,r4
 10038d8:	94e6983a 	sll	r19,r18,r19
 10038dc:	2162b03a 	or	r17,r4,r5
 10038e0:	053f0344 	movi	r20,-1011
 10038e4:	a0e9c83a 	sub	r20,r20,r3
 10038e8:	0025883a 	mov	r18,zero
 10038ec:	0011883a 	mov	r8,zero
 10038f0:	003f9606 	br	100374c <__alt_data_end+0xff80374c>
 10038f4:	8184b03a 	or	r2,r16,r6
 10038f8:	10001f1e 	bne	r2,zero,1003978 <__divdf3+0x2a8>
 10038fc:	0021883a 	mov	r16,zero
 1003900:	002b883a 	mov	r21,zero
 1003904:	01c00084 	movi	r7,2
 1003908:	003fa206 	br	1003794 <__alt_data_end+0xff803794>
 100390c:	8184b03a 	or	r2,r16,r6
 1003910:	10001526 	beq	r2,zero,1003968 <__divdf3+0x298>
 1003914:	80010c26 	beq	r16,zero,1003d48 <__divdf3+0x678>
 1003918:	8009883a 	mov	r4,r16
 100391c:	d9800315 	stw	r6,12(sp)
 1003920:	da000215 	stw	r8,8(sp)
 1003924:	da400015 	stw	r9,0(sp)
 1003928:	1004a740 	call	1004a74 <__clzsi2>
 100392c:	d9800317 	ldw	r6,12(sp)
 1003930:	da000217 	ldw	r8,8(sp)
 1003934:	da400017 	ldw	r9,0(sp)
 1003938:	1007883a 	mov	r3,r2
 100393c:	01000a04 	movi	r4,40
 1003940:	1d7ffe04 	addi	r21,r3,-8
 1003944:	20c9c83a 	sub	r4,r4,r3
 1003948:	8560983a 	sll	r16,r16,r21
 100394c:	3108d83a 	srl	r4,r6,r4
 1003950:	356a983a 	sll	r21,r6,r21
 1003954:	2420b03a 	or	r16,r4,r16
 1003958:	017f0344 	movi	r5,-1011
 100395c:	28cbc83a 	sub	r5,r5,r3
 1003960:	000f883a 	mov	r7,zero
 1003964:	003f8b06 	br	1003794 <__alt_data_end+0xff803794>
 1003968:	0021883a 	mov	r16,zero
 100396c:	002b883a 	mov	r21,zero
 1003970:	01c00044 	movi	r7,1
 1003974:	003f8706 	br	1003794 <__alt_data_end+0xff803794>
 1003978:	01c000c4 	movi	r7,3
 100397c:	003f8506 	br	1003794 <__alt_data_end+0xff803794>
 1003980:	04800104 	movi	r18,4
 1003984:	0023883a 	mov	r17,zero
 1003988:	0027883a 	mov	r19,zero
 100398c:	02000044 	movi	r8,1
 1003990:	003f6e06 	br	100374c <__alt_data_end+0xff80374c>
 1003994:	04800304 	movi	r18,12
 1003998:	020000c4 	movi	r8,3
 100399c:	003f6b06 	br	100374c <__alt_data_end+0xff80374c>
 10039a0:	01400434 	movhi	r5,16
 10039a4:	000d883a 	mov	r6,zero
 10039a8:	297fffc4 	addi	r5,r5,-1
 10039ac:	04ffffc4 	movi	r19,-1
 10039b0:	0101ffc4 	movi	r4,2047
 10039b4:	003fa406 	br	1003848 <__alt_data_end+0xff803848>
 10039b8:	043f0084 	movi	r16,-1022
 10039bc:	8521c83a 	sub	r16,r16,r20
 10039c0:	00800e04 	movi	r2,56
 10039c4:	1401200e 	bge	r2,r16,1003e48 <__divdf3+0x778>
 10039c8:	9180004c 	andi	r6,r18,1
 10039cc:	0009883a 	mov	r4,zero
 10039d0:	000b883a 	mov	r5,zero
 10039d4:	0027883a 	mov	r19,zero
 10039d8:	003f9b06 	br	1003848 <__alt_data_end+0xff803848>
 10039dc:	8880022c 	andhi	r2,r17,8
 10039e0:	1000c726 	beq	r2,zero,1003d00 <__divdf3+0x630>
 10039e4:	8080022c 	andhi	r2,r16,8
 10039e8:	1000c51e 	bne	r2,zero,1003d00 <__divdf3+0x630>
 10039ec:	00800434 	movhi	r2,16
 10039f0:	81400234 	orhi	r5,r16,8
 10039f4:	10bfffc4 	addi	r2,r2,-1
 10039f8:	b80d883a 	mov	r6,r23
 10039fc:	288a703a 	and	r5,r5,r2
 1003a00:	a827883a 	mov	r19,r21
 1003a04:	003fea06 	br	10039b0 <__alt_data_end+0xff8039b0>
 1003a08:	8440ea36 	bltu	r16,r17,1003db4 <__divdf3+0x6e4>
 1003a0c:	8c00e826 	beq	r17,r16,1003db0 <__divdf3+0x6e0>
 1003a10:	a53fffc4 	addi	r20,r20,-1
 1003a14:	882d883a 	mov	r22,r17
 1003a18:	000d883a 	mov	r6,zero
 1003a1c:	a804d63a 	srli	r2,r21,24
 1003a20:	8020923a 	slli	r16,r16,8
 1003a24:	b009883a 	mov	r4,r22
 1003a28:	d9800315 	stw	r6,12(sp)
 1003a2c:	1420b03a 	or	r16,r2,r16
 1003a30:	802ed43a 	srli	r23,r16,16
 1003a34:	873fffcc 	andi	fp,r16,65535
 1003a38:	a82a923a 	slli	r21,r21,8
 1003a3c:	b80b883a 	mov	r5,r23
 1003a40:	1004bf40 	call	1004bf4 <__udivsi3>
 1003a44:	b009883a 	mov	r4,r22
 1003a48:	b80b883a 	mov	r5,r23
 1003a4c:	1023883a 	mov	r17,r2
 1003a50:	1004bfc0 	call	1004bfc <__umodsi3>
 1003a54:	1004943a 	slli	r2,r2,16
 1003a58:	9808d43a 	srli	r4,r19,16
 1003a5c:	8f2d383a 	mul	r22,r17,fp
 1003a60:	d9800317 	ldw	r6,12(sp)
 1003a64:	1106b03a 	or	r3,r2,r4
 1003a68:	1d80062e 	bgeu	r3,r22,1003a84 <__divdf3+0x3b4>
 1003a6c:	1c07883a 	add	r3,r3,r16
 1003a70:	88bfffc4 	addi	r2,r17,-1
 1003a74:	1c00dc36 	bltu	r3,r16,1003de8 <__divdf3+0x718>
 1003a78:	1d80db2e 	bgeu	r3,r22,1003de8 <__divdf3+0x718>
 1003a7c:	8c7fff84 	addi	r17,r17,-2
 1003a80:	1c07883a 	add	r3,r3,r16
 1003a84:	1dadc83a 	sub	r22,r3,r22
 1003a88:	b009883a 	mov	r4,r22
 1003a8c:	b80b883a 	mov	r5,r23
 1003a90:	d9800315 	stw	r6,12(sp)
 1003a94:	1004bf40 	call	1004bf4 <__udivsi3>
 1003a98:	b009883a 	mov	r4,r22
 1003a9c:	b80b883a 	mov	r5,r23
 1003aa0:	d8800015 	stw	r2,0(sp)
 1003aa4:	1004bfc0 	call	1004bfc <__umodsi3>
 1003aa8:	da400017 	ldw	r9,0(sp)
 1003aac:	1004943a 	slli	r2,r2,16
 1003ab0:	9cffffcc 	andi	r19,r19,65535
 1003ab4:	4f07383a 	mul	r3,r9,fp
 1003ab8:	14c8b03a 	or	r4,r2,r19
 1003abc:	d9800317 	ldw	r6,12(sp)
 1003ac0:	20c0062e 	bgeu	r4,r3,1003adc <__divdf3+0x40c>
 1003ac4:	2409883a 	add	r4,r4,r16
 1003ac8:	48bfffc4 	addi	r2,r9,-1
 1003acc:	2400c436 	bltu	r4,r16,1003de0 <__divdf3+0x710>
 1003ad0:	20c0c32e 	bgeu	r4,r3,1003de0 <__divdf3+0x710>
 1003ad4:	4a7fff84 	addi	r9,r9,-2
 1003ad8:	2409883a 	add	r4,r4,r16
 1003adc:	8822943a 	slli	r17,r17,16
 1003ae0:	a80ed43a 	srli	r7,r21,16
 1003ae4:	aa3fffcc 	andi	r8,r21,65535
 1003ae8:	4c62b03a 	or	r17,r9,r17
 1003aec:	8816d43a 	srli	r11,r17,16
 1003af0:	897fffcc 	andi	r5,r17,65535
 1003af4:	2a15383a 	mul	r10,r5,r8
 1003af8:	5a19383a 	mul	r12,r11,r8
 1003afc:	29cb383a 	mul	r5,r5,r7
 1003b00:	5012d43a 	srli	r9,r10,16
 1003b04:	20c5c83a 	sub	r2,r4,r3
 1003b08:	614b883a 	add	r5,r12,r5
 1003b0c:	2a4b883a 	add	r5,r5,r9
 1003b10:	59c7383a 	mul	r3,r11,r7
 1003b14:	2b00022e 	bgeu	r5,r12,1003b20 <__divdf3+0x450>
 1003b18:	01000074 	movhi	r4,1
 1003b1c:	1907883a 	add	r3,r3,r4
 1003b20:	2808d43a 	srli	r4,r5,16
 1003b24:	280a943a 	slli	r5,r5,16
 1003b28:	54ffffcc 	andi	r19,r10,65535
 1003b2c:	1907883a 	add	r3,r3,r4
 1003b30:	2ccb883a 	add	r5,r5,r19
 1003b34:	10c09336 	bltu	r2,r3,1003d84 <__divdf3+0x6b4>
 1003b38:	10c0ad26 	beq	r2,r3,1003df0 <__divdf3+0x720>
 1003b3c:	10c7c83a 	sub	r3,r2,r3
 1003b40:	3167c83a 	sub	r19,r6,r5
 1003b44:	34ed803a 	cmpltu	r22,r6,r19
 1003b48:	1dadc83a 	sub	r22,r3,r22
 1003b4c:	b400b226 	beq	r22,r16,1003e18 <__divdf3+0x748>
 1003b50:	b009883a 	mov	r4,r22
 1003b54:	b80b883a 	mov	r5,r23
 1003b58:	d9c00115 	stw	r7,4(sp)
 1003b5c:	da000215 	stw	r8,8(sp)
 1003b60:	1004bf40 	call	1004bf4 <__udivsi3>
 1003b64:	b009883a 	mov	r4,r22
 1003b68:	b80b883a 	mov	r5,r23
 1003b6c:	d8800315 	stw	r2,12(sp)
 1003b70:	1004bfc0 	call	1004bfc <__umodsi3>
 1003b74:	d9800317 	ldw	r6,12(sp)
 1003b78:	1004943a 	slli	r2,r2,16
 1003b7c:	9808d43a 	srli	r4,r19,16
 1003b80:	372d383a 	mul	r22,r6,fp
 1003b84:	d9c00117 	ldw	r7,4(sp)
 1003b88:	1106b03a 	or	r3,r2,r4
 1003b8c:	da000217 	ldw	r8,8(sp)
 1003b90:	1d80062e 	bgeu	r3,r22,1003bac <__divdf3+0x4dc>
 1003b94:	1c07883a 	add	r3,r3,r16
 1003b98:	30bfffc4 	addi	r2,r6,-1
 1003b9c:	1c00a036 	bltu	r3,r16,1003e20 <__divdf3+0x750>
 1003ba0:	1d809f2e 	bgeu	r3,r22,1003e20 <__divdf3+0x750>
 1003ba4:	31bfff84 	addi	r6,r6,-2
 1003ba8:	1c07883a 	add	r3,r3,r16
 1003bac:	1dadc83a 	sub	r22,r3,r22
 1003bb0:	b009883a 	mov	r4,r22
 1003bb4:	b80b883a 	mov	r5,r23
 1003bb8:	d9800315 	stw	r6,12(sp)
 1003bbc:	d9c00115 	stw	r7,4(sp)
 1003bc0:	da000215 	stw	r8,8(sp)
 1003bc4:	1004bf40 	call	1004bf4 <__udivsi3>
 1003bc8:	b009883a 	mov	r4,r22
 1003bcc:	b80b883a 	mov	r5,r23
 1003bd0:	d8800015 	stw	r2,0(sp)
 1003bd4:	1004bfc0 	call	1004bfc <__umodsi3>
 1003bd8:	da400017 	ldw	r9,0(sp)
 1003bdc:	1004943a 	slli	r2,r2,16
 1003be0:	993fffcc 	andi	r4,r19,65535
 1003be4:	4f39383a 	mul	fp,r9,fp
 1003be8:	1106b03a 	or	r3,r2,r4
 1003bec:	d9800317 	ldw	r6,12(sp)
 1003bf0:	d9c00117 	ldw	r7,4(sp)
 1003bf4:	da000217 	ldw	r8,8(sp)
 1003bf8:	1f00062e 	bgeu	r3,fp,1003c14 <__divdf3+0x544>
 1003bfc:	1c07883a 	add	r3,r3,r16
 1003c00:	48bfffc4 	addi	r2,r9,-1
 1003c04:	1c008836 	bltu	r3,r16,1003e28 <__divdf3+0x758>
 1003c08:	1f00872e 	bgeu	r3,fp,1003e28 <__divdf3+0x758>
 1003c0c:	4a7fff84 	addi	r9,r9,-2
 1003c10:	1c07883a 	add	r3,r3,r16
 1003c14:	3008943a 	slli	r4,r6,16
 1003c18:	1f07c83a 	sub	r3,r3,fp
 1003c1c:	4926b03a 	or	r19,r9,r4
 1003c20:	993fffcc 	andi	r4,r19,65535
 1003c24:	980cd43a 	srli	r6,r19,16
 1003c28:	220b383a 	mul	r5,r4,r8
 1003c2c:	21c5383a 	mul	r2,r4,r7
 1003c30:	3211383a 	mul	r8,r6,r8
 1003c34:	2808d43a 	srli	r4,r5,16
 1003c38:	31cf383a 	mul	r7,r6,r7
 1003c3c:	4085883a 	add	r2,r8,r2
 1003c40:	1105883a 	add	r2,r2,r4
 1003c44:	1200022e 	bgeu	r2,r8,1003c50 <__divdf3+0x580>
 1003c48:	01000074 	movhi	r4,1
 1003c4c:	390f883a 	add	r7,r7,r4
 1003c50:	1008d43a 	srli	r4,r2,16
 1003c54:	1004943a 	slli	r2,r2,16
 1003c58:	297fffcc 	andi	r5,r5,65535
 1003c5c:	390f883a 	add	r7,r7,r4
 1003c60:	1145883a 	add	r2,r2,r5
 1003c64:	19c06536 	bltu	r3,r7,1003dfc <__divdf3+0x72c>
 1003c68:	19c09f26 	beq	r3,r7,1003ee8 <__divdf3+0x818>
 1003c6c:	9cc00054 	ori	r19,r19,1
 1003c70:	a100ffc4 	addi	r4,r20,1023
 1003c74:	013f500e 	bge	zero,r4,10039b8 <__alt_data_end+0xff8039b8>
 1003c78:	988001cc 	andi	r2,r19,7
 1003c7c:	10000726 	beq	r2,zero,1003c9c <__divdf3+0x5cc>
 1003c80:	98c003cc 	andi	r3,r19,15
 1003c84:	00800104 	movi	r2,4
 1003c88:	18800426 	beq	r3,r2,1003c9c <__divdf3+0x5cc>
 1003c8c:	9885883a 	add	r2,r19,r2
 1003c90:	14e1803a 	cmpltu	r16,r2,r19
 1003c94:	8c23883a 	add	r17,r17,r16
 1003c98:	1027883a 	mov	r19,r2
 1003c9c:	8880402c 	andhi	r2,r17,256
 1003ca0:	10000426 	beq	r2,zero,1003cb4 <__divdf3+0x5e4>
 1003ca4:	00bfc034 	movhi	r2,65280
 1003ca8:	10bfffc4 	addi	r2,r2,-1
 1003cac:	a1010004 	addi	r4,r20,1024
 1003cb0:	88a2703a 	and	r17,r17,r2
 1003cb4:	0081ff84 	movi	r2,2046
 1003cb8:	113edf16 	blt	r2,r4,1003838 <__alt_data_end+0xff803838>
 1003cbc:	9826d0fa 	srli	r19,r19,3
 1003cc0:	8804977a 	slli	r2,r17,29
 1003cc4:	8820927a 	slli	r16,r17,9
 1003cc8:	2101ffcc 	andi	r4,r4,2047
 1003ccc:	14e6b03a 	or	r19,r2,r19
 1003cd0:	800ad33a 	srli	r5,r16,12
 1003cd4:	9180004c 	andi	r6,r18,1
 1003cd8:	003edb06 	br	1003848 <__alt_data_end+0xff803848>
 1003cdc:	008000c4 	movi	r2,3
 1003ce0:	4080a826 	beq	r8,r2,1003f84 <__divdf3+0x8b4>
 1003ce4:	00800044 	movi	r2,1
 1003ce8:	4080551e 	bne	r8,r2,1003e40 <__divdf3+0x770>
 1003cec:	e00d883a 	mov	r6,fp
 1003cf0:	0009883a 	mov	r4,zero
 1003cf4:	000b883a 	mov	r5,zero
 1003cf8:	0027883a 	mov	r19,zero
 1003cfc:	003ed206 	br	1003848 <__alt_data_end+0xff803848>
 1003d00:	00800434 	movhi	r2,16
 1003d04:	89400234 	orhi	r5,r17,8
 1003d08:	10bfffc4 	addi	r2,r2,-1
 1003d0c:	b00d883a 	mov	r6,r22
 1003d10:	288a703a 	and	r5,r5,r2
 1003d14:	003f2606 	br	10039b0 <__alt_data_end+0xff8039b0>
 1003d18:	d9800315 	stw	r6,12(sp)
 1003d1c:	d9c00115 	stw	r7,4(sp)
 1003d20:	1004a740 	call	1004a74 <__clzsi2>
 1003d24:	10c00804 	addi	r3,r2,32
 1003d28:	010009c4 	movi	r4,39
 1003d2c:	d9800317 	ldw	r6,12(sp)
 1003d30:	d9c00117 	ldw	r7,4(sp)
 1003d34:	20fee30e 	bge	r4,r3,10038c4 <__alt_data_end+0xff8038c4>
 1003d38:	117ffe04 	addi	r5,r2,-8
 1003d3c:	9162983a 	sll	r17,r18,r5
 1003d40:	0027883a 	mov	r19,zero
 1003d44:	003ee606 	br	10038e0 <__alt_data_end+0xff8038e0>
 1003d48:	3009883a 	mov	r4,r6
 1003d4c:	d9800315 	stw	r6,12(sp)
 1003d50:	da000215 	stw	r8,8(sp)
 1003d54:	da400015 	stw	r9,0(sp)
 1003d58:	1004a740 	call	1004a74 <__clzsi2>
 1003d5c:	10c00804 	addi	r3,r2,32
 1003d60:	010009c4 	movi	r4,39
 1003d64:	d9800317 	ldw	r6,12(sp)
 1003d68:	da000217 	ldw	r8,8(sp)
 1003d6c:	da400017 	ldw	r9,0(sp)
 1003d70:	20fef20e 	bge	r4,r3,100393c <__alt_data_end+0xff80393c>
 1003d74:	10bffe04 	addi	r2,r2,-8
 1003d78:	a8a0983a 	sll	r16,r21,r2
 1003d7c:	002b883a 	mov	r21,zero
 1003d80:	003ef506 	br	1003958 <__alt_data_end+0xff803958>
 1003d84:	354d883a 	add	r6,r6,r21
 1003d88:	3549803a 	cmpltu	r4,r6,r21
 1003d8c:	2409883a 	add	r4,r4,r16
 1003d90:	2089883a 	add	r4,r4,r2
 1003d94:	88bfffc4 	addi	r2,r17,-1
 1003d98:	81000c2e 	bgeu	r16,r4,1003dcc <__divdf3+0x6fc>
 1003d9c:	20c04436 	bltu	r4,r3,1003eb0 <__divdf3+0x7e0>
 1003da0:	19006f26 	beq	r3,r4,1003f60 <__divdf3+0x890>
 1003da4:	20c7c83a 	sub	r3,r4,r3
 1003da8:	1023883a 	mov	r17,r2
 1003dac:	003f6406 	br	1003b40 <__alt_data_end+0xff803b40>
 1003db0:	9d7f1736 	bltu	r19,r21,1003a10 <__alt_data_end+0xff803a10>
 1003db4:	9806d07a 	srli	r3,r19,1
 1003db8:	880497fa 	slli	r2,r17,31
 1003dbc:	980c97fa 	slli	r6,r19,31
 1003dc0:	882cd07a 	srli	r22,r17,1
 1003dc4:	18a6b03a 	or	r19,r3,r2
 1003dc8:	003f1406 	br	1003a1c <__alt_data_end+0xff803a1c>
 1003dcc:	243ff51e 	bne	r4,r16,1003da4 <__alt_data_end+0xff803da4>
 1003dd0:	357ff22e 	bgeu	r6,r21,1003d9c <__alt_data_end+0xff803d9c>
 1003dd4:	80c7c83a 	sub	r3,r16,r3
 1003dd8:	1023883a 	mov	r17,r2
 1003ddc:	003f5806 	br	1003b40 <__alt_data_end+0xff803b40>
 1003de0:	1013883a 	mov	r9,r2
 1003de4:	003f3d06 	br	1003adc <__alt_data_end+0xff803adc>
 1003de8:	1023883a 	mov	r17,r2
 1003dec:	003f2506 	br	1003a84 <__alt_data_end+0xff803a84>
 1003df0:	317fe436 	bltu	r6,r5,1003d84 <__alt_data_end+0xff803d84>
 1003df4:	0007883a 	mov	r3,zero
 1003df8:	003f5106 	br	1003b40 <__alt_data_end+0xff803b40>
 1003dfc:	1c07883a 	add	r3,r3,r16
 1003e00:	993fffc4 	addi	r4,r19,-1
 1003e04:	1c000a2e 	bgeu	r3,r16,1003e30 <__divdf3+0x760>
 1003e08:	2027883a 	mov	r19,r4
 1003e0c:	19ff971e 	bne	r3,r7,1003c6c <__alt_data_end+0xff803c6c>
 1003e10:	a8bf961e 	bne	r21,r2,1003c6c <__alt_data_end+0xff803c6c>
 1003e14:	003f9606 	br	1003c70 <__alt_data_end+0xff803c70>
 1003e18:	04ffffc4 	movi	r19,-1
 1003e1c:	003f9406 	br	1003c70 <__alt_data_end+0xff803c70>
 1003e20:	100d883a 	mov	r6,r2
 1003e24:	003f6106 	br	1003bac <__alt_data_end+0xff803bac>
 1003e28:	1013883a 	mov	r9,r2
 1003e2c:	003f7906 	br	1003c14 <__alt_data_end+0xff803c14>
 1003e30:	19c02636 	bltu	r3,r7,1003ecc <__divdf3+0x7fc>
 1003e34:	38c04d26 	beq	r7,r3,1003f6c <__divdf3+0x89c>
 1003e38:	2027883a 	mov	r19,r4
 1003e3c:	003f8b06 	br	1003c6c <__alt_data_end+0xff803c6c>
 1003e40:	e025883a 	mov	r18,fp
 1003e44:	003f8a06 	br	1003c70 <__alt_data_end+0xff803c70>
 1003e48:	008007c4 	movi	r2,31
 1003e4c:	14002a16 	blt	r2,r16,1003ef8 <__divdf3+0x828>
 1003e50:	a5010784 	addi	r20,r20,1054
 1003e54:	8d04983a 	sll	r2,r17,r20
 1003e58:	9c06d83a 	srl	r3,r19,r16
 1003e5c:	9d28983a 	sll	r20,r19,r20
 1003e60:	8c20d83a 	srl	r16,r17,r16
 1003e64:	1886b03a 	or	r3,r3,r2
 1003e68:	a004c03a 	cmpne	r2,r20,zero
 1003e6c:	1884b03a 	or	r2,r3,r2
 1003e70:	10c001cc 	andi	r3,r2,7
 1003e74:	18000726 	beq	r3,zero,1003e94 <__divdf3+0x7c4>
 1003e78:	110003cc 	andi	r4,r2,15
 1003e7c:	00c00104 	movi	r3,4
 1003e80:	20c00426 	beq	r4,r3,1003e94 <__divdf3+0x7c4>
 1003e84:	10c00104 	addi	r3,r2,4
 1003e88:	1885803a 	cmpltu	r2,r3,r2
 1003e8c:	80a1883a 	add	r16,r16,r2
 1003e90:	1805883a 	mov	r2,r3
 1003e94:	80c0202c 	andhi	r3,r16,128
 1003e98:	18002d26 	beq	r3,zero,1003f50 <__divdf3+0x880>
 1003e9c:	9180004c 	andi	r6,r18,1
 1003ea0:	01000044 	movi	r4,1
 1003ea4:	000b883a 	mov	r5,zero
 1003ea8:	0027883a 	mov	r19,zero
 1003eac:	003e6606 	br	1003848 <__alt_data_end+0xff803848>
 1003eb0:	354d883a 	add	r6,r6,r21
 1003eb4:	356d803a 	cmpltu	r22,r6,r21
 1003eb8:	b42d883a 	add	r22,r22,r16
 1003ebc:	b12d883a 	add	r22,r22,r4
 1003ec0:	8c7fff84 	addi	r17,r17,-2
 1003ec4:	b0c7c83a 	sub	r3,r22,r3
 1003ec8:	003f1d06 	br	1003b40 <__alt_data_end+0xff803b40>
 1003ecc:	ad4b883a 	add	r5,r21,r21
 1003ed0:	2d6b803a 	cmpltu	r21,r5,r21
 1003ed4:	ac2b883a 	add	r21,r21,r16
 1003ed8:	1d47883a 	add	r3,r3,r21
 1003edc:	993fff84 	addi	r4,r19,-2
 1003ee0:	282b883a 	mov	r21,r5
 1003ee4:	003fc806 	br	1003e08 <__alt_data_end+0xff803e08>
 1003ee8:	103fc41e 	bne	r2,zero,1003dfc <__alt_data_end+0xff803dfc>
 1003eec:	002b883a 	mov	r21,zero
 1003ef0:	a8bf5e1e 	bne	r21,r2,1003c6c <__alt_data_end+0xff803c6c>
 1003ef4:	003f5e06 	br	1003c70 <__alt_data_end+0xff803c70>
 1003ef8:	00bef884 	movi	r2,-1054
 1003efc:	1505c83a 	sub	r2,r2,r20
 1003f00:	00c00804 	movi	r3,32
 1003f04:	8884d83a 	srl	r2,r17,r2
 1003f08:	80c01c26 	beq	r16,r3,1003f7c <__divdf3+0x8ac>
 1003f0c:	a0c10f84 	addi	r3,r20,1086
 1003f10:	88c6983a 	sll	r3,r17,r3
 1003f14:	1cc6b03a 	or	r3,r3,r19
 1003f18:	1806c03a 	cmpne	r3,r3,zero
 1003f1c:	1884b03a 	or	r2,r3,r2
 1003f20:	140001cc 	andi	r16,r2,7
 1003f24:	8000061e 	bne	r16,zero,1003f40 <__divdf3+0x870>
 1003f28:	000b883a 	mov	r5,zero
 1003f2c:	1004d0fa 	srli	r2,r2,3
 1003f30:	9180004c 	andi	r6,r18,1
 1003f34:	0009883a 	mov	r4,zero
 1003f38:	1426b03a 	or	r19,r2,r16
 1003f3c:	003e4206 	br	1003848 <__alt_data_end+0xff803848>
 1003f40:	110003cc 	andi	r4,r2,15
 1003f44:	00c00104 	movi	r3,4
 1003f48:	0021883a 	mov	r16,zero
 1003f4c:	20ffcd1e 	bne	r4,r3,1003e84 <__alt_data_end+0xff803e84>
 1003f50:	800a927a 	slli	r5,r16,9
 1003f54:	8020977a 	slli	r16,r16,29
 1003f58:	280ad33a 	srli	r5,r5,12
 1003f5c:	003ff306 	br	1003f2c <__alt_data_end+0xff803f2c>
 1003f60:	317fd336 	bltu	r6,r5,1003eb0 <__alt_data_end+0xff803eb0>
 1003f64:	1023883a 	mov	r17,r2
 1003f68:	003fa206 	br	1003df4 <__alt_data_end+0xff803df4>
 1003f6c:	a8bfd736 	bltu	r21,r2,1003ecc <__alt_data_end+0xff803ecc>
 1003f70:	2027883a 	mov	r19,r4
 1003f74:	a8bf3d1e 	bne	r21,r2,1003c6c <__alt_data_end+0xff803c6c>
 1003f78:	003f3d06 	br	1003c70 <__alt_data_end+0xff803c70>
 1003f7c:	0007883a 	mov	r3,zero
 1003f80:	003fe406 	br	1003f14 <__alt_data_end+0xff803f14>
 1003f84:	00800434 	movhi	r2,16
 1003f88:	89400234 	orhi	r5,r17,8
 1003f8c:	10bfffc4 	addi	r2,r2,-1
 1003f90:	e00d883a 	mov	r6,fp
 1003f94:	288a703a 	and	r5,r5,r2
 1003f98:	003e8506 	br	10039b0 <__alt_data_end+0xff8039b0>

01003f9c <__eqdf2>:
 1003f9c:	2804d53a 	srli	r2,r5,20
 1003fa0:	3806d53a 	srli	r3,r7,20
 1003fa4:	02000434 	movhi	r8,16
 1003fa8:	423fffc4 	addi	r8,r8,-1
 1003fac:	1081ffcc 	andi	r2,r2,2047
 1003fb0:	0241ffc4 	movi	r9,2047
 1003fb4:	2a14703a 	and	r10,r5,r8
 1003fb8:	18c1ffcc 	andi	r3,r3,2047
 1003fbc:	3a10703a 	and	r8,r7,r8
 1003fc0:	280ad7fa 	srli	r5,r5,31
 1003fc4:	380ed7fa 	srli	r7,r7,31
 1003fc8:	12400f26 	beq	r2,r9,1004008 <__eqdf2+0x6c>
 1003fcc:	0241ffc4 	movi	r9,2047
 1003fd0:	1a400326 	beq	r3,r9,1003fe0 <__eqdf2+0x44>
 1003fd4:	10c00526 	beq	r2,r3,1003fec <__eqdf2+0x50>
 1003fd8:	00800044 	movi	r2,1
 1003fdc:	f800283a 	ret
 1003fe0:	4192b03a 	or	r9,r8,r6
 1003fe4:	483ffc1e 	bne	r9,zero,1003fd8 <__alt_data_end+0xff803fd8>
 1003fe8:	10fffb1e 	bne	r2,r3,1003fd8 <__alt_data_end+0xff803fd8>
 1003fec:	523ffa1e 	bne	r10,r8,1003fd8 <__alt_data_end+0xff803fd8>
 1003ff0:	21bff91e 	bne	r4,r6,1003fd8 <__alt_data_end+0xff803fd8>
 1003ff4:	29c00826 	beq	r5,r7,1004018 <__eqdf2+0x7c>
 1003ff8:	103ff71e 	bne	r2,zero,1003fd8 <__alt_data_end+0xff803fd8>
 1003ffc:	5104b03a 	or	r2,r10,r4
 1004000:	1004c03a 	cmpne	r2,r2,zero
 1004004:	f800283a 	ret
 1004008:	5112b03a 	or	r9,r10,r4
 100400c:	483fef26 	beq	r9,zero,1003fcc <__alt_data_end+0xff803fcc>
 1004010:	00800044 	movi	r2,1
 1004014:	f800283a 	ret
 1004018:	0005883a 	mov	r2,zero
 100401c:	f800283a 	ret

01004020 <__muldf3>:
 1004020:	defff204 	addi	sp,sp,-56
 1004024:	2804d53a 	srli	r2,r5,20
 1004028:	dd800a15 	stw	r22,40(sp)
 100402c:	282cd7fa 	srli	r22,r5,31
 1004030:	dc000415 	stw	r16,16(sp)
 1004034:	04000434 	movhi	r16,16
 1004038:	df000c15 	stw	fp,48(sp)
 100403c:	dd000815 	stw	r20,32(sp)
 1004040:	dcc00715 	stw	r19,28(sp)
 1004044:	dc800615 	stw	r18,24(sp)
 1004048:	dc400515 	stw	r17,20(sp)
 100404c:	843fffc4 	addi	r16,r16,-1
 1004050:	dfc00d15 	stw	ra,52(sp)
 1004054:	ddc00b15 	stw	r23,44(sp)
 1004058:	dd400915 	stw	r21,36(sp)
 100405c:	1501ffcc 	andi	r20,r2,2047
 1004060:	2023883a 	mov	r17,r4
 1004064:	2025883a 	mov	r18,r4
 1004068:	2c20703a 	and	r16,r5,r16
 100406c:	b027883a 	mov	r19,r22
 1004070:	b7003fcc 	andi	fp,r22,255
 1004074:	a0005926 	beq	r20,zero,10041dc <__muldf3+0x1bc>
 1004078:	0081ffc4 	movi	r2,2047
 100407c:	a0803426 	beq	r20,r2,1004150 <__muldf3+0x130>
 1004080:	84000434 	orhi	r16,r16,16
 1004084:	2004d77a 	srli	r2,r4,29
 1004088:	802090fa 	slli	r16,r16,3
 100408c:	202490fa 	slli	r18,r4,3
 1004090:	a53f0044 	addi	r20,r20,-1023
 1004094:	80a0b03a 	or	r16,r16,r2
 1004098:	002b883a 	mov	r21,zero
 100409c:	0015883a 	mov	r10,zero
 10040a0:	3812d53a 	srli	r9,r7,20
 10040a4:	3806d7fa 	srli	r3,r7,31
 10040a8:	02000434 	movhi	r8,16
 10040ac:	423fffc4 	addi	r8,r8,-1
 10040b0:	4941ffcc 	andi	r5,r9,2047
 10040b4:	302f883a 	mov	r23,r6
 10040b8:	3a22703a 	and	r17,r7,r8
 10040bc:	1ac03fcc 	andi	r11,r3,255
 10040c0:	28006226 	beq	r5,zero,100424c <__muldf3+0x22c>
 10040c4:	0081ffc4 	movi	r2,2047
 10040c8:	28805a26 	beq	r5,r2,1004234 <__muldf3+0x214>
 10040cc:	8a000434 	orhi	r8,r17,16
 10040d0:	3004d77a 	srli	r2,r6,29
 10040d4:	401090fa 	slli	r8,r8,3
 10040d8:	302e90fa 	slli	r23,r6,3
 10040dc:	297f0044 	addi	r5,r5,-1023
 10040e0:	40a2b03a 	or	r17,r8,r2
 10040e4:	0013883a 	mov	r9,zero
 10040e8:	4d4cb03a 	or	r6,r9,r21
 10040ec:	300c90ba 	slli	r6,r6,2
 10040f0:	02004034 	movhi	r8,256
 10040f4:	42104404 	addi	r8,r8,16656
 10040f8:	320d883a 	add	r6,r6,r8
 10040fc:	31800017 	ldw	r6,0(r6)
 1004100:	a14b883a 	add	r5,r20,r5
 1004104:	1dacf03a 	xor	r22,r3,r22
 1004108:	2b000044 	addi	r12,r5,1
 100410c:	3000683a 	jmp	r6
 1004110:	0100434c 	andi	r4,zero,269
 1004114:	01004338 	rdprs	r4,zero,268
 1004118:	01004338 	rdprs	r4,zero,268
 100411c:	01004324 	muli	r4,zero,268
 1004120:	0100416c 	andhi	r4,zero,261
 1004124:	0100416c 	andhi	r4,zero,261
 1004128:	0100430c 	andi	r4,zero,268
 100412c:	01004324 	muli	r4,zero,268
 1004130:	0100416c 	andhi	r4,zero,261
 1004134:	0100430c 	andi	r4,zero,268
 1004138:	0100416c 	andhi	r4,zero,261
 100413c:	01004324 	muli	r4,zero,268
 1004140:	01004170 	cmpltui	r4,zero,261
 1004144:	01004170 	cmpltui	r4,zero,261
 1004148:	01004170 	cmpltui	r4,zero,261
 100414c:	01004548 	cmpgei	r4,zero,277
 1004150:	8104b03a 	or	r2,r16,r4
 1004154:	10006a1e 	bne	r2,zero,1004300 <__muldf3+0x2e0>
 1004158:	05400204 	movi	r21,8
 100415c:	0021883a 	mov	r16,zero
 1004160:	0025883a 	mov	r18,zero
 1004164:	02800084 	movi	r10,2
 1004168:	003fcd06 	br	10040a0 <__alt_data_end+0xff8040a0>
 100416c:	b039883a 	mov	fp,r22
 1004170:	00800084 	movi	r2,2
 1004174:	50804e1e 	bne	r10,r2,10042b0 <__muldf3+0x290>
 1004178:	e4c0004c 	andi	r19,fp,1
 100417c:	0101ffc4 	movi	r4,2047
 1004180:	0021883a 	mov	r16,zero
 1004184:	0025883a 	mov	r18,zero
 1004188:	2008953a 	slli	r4,r4,20
 100418c:	98c03fcc 	andi	r3,r19,255
 1004190:	01400434 	movhi	r5,16
 1004194:	297fffc4 	addi	r5,r5,-1
 1004198:	180697fa 	slli	r3,r3,31
 100419c:	8160703a 	and	r16,r16,r5
 10041a0:	8120b03a 	or	r16,r16,r4
 10041a4:	80c6b03a 	or	r3,r16,r3
 10041a8:	9005883a 	mov	r2,r18
 10041ac:	dfc00d17 	ldw	ra,52(sp)
 10041b0:	df000c17 	ldw	fp,48(sp)
 10041b4:	ddc00b17 	ldw	r23,44(sp)
 10041b8:	dd800a17 	ldw	r22,40(sp)
 10041bc:	dd400917 	ldw	r21,36(sp)
 10041c0:	dd000817 	ldw	r20,32(sp)
 10041c4:	dcc00717 	ldw	r19,28(sp)
 10041c8:	dc800617 	ldw	r18,24(sp)
 10041cc:	dc400517 	ldw	r17,20(sp)
 10041d0:	dc000417 	ldw	r16,16(sp)
 10041d4:	dec00e04 	addi	sp,sp,56
 10041d8:	f800283a 	ret
 10041dc:	8104b03a 	or	r2,r16,r4
 10041e0:	10004226 	beq	r2,zero,10042ec <__muldf3+0x2cc>
 10041e4:	8000f926 	beq	r16,zero,10045cc <__muldf3+0x5ac>
 10041e8:	8009883a 	mov	r4,r16
 10041ec:	d9800315 	stw	r6,12(sp)
 10041f0:	d9c00015 	stw	r7,0(sp)
 10041f4:	1004a740 	call	1004a74 <__clzsi2>
 10041f8:	d9800317 	ldw	r6,12(sp)
 10041fc:	d9c00017 	ldw	r7,0(sp)
 1004200:	1007883a 	mov	r3,r2
 1004204:	01000a04 	movi	r4,40
 1004208:	18bffe04 	addi	r2,r3,-8
 100420c:	20c9c83a 	sub	r4,r4,r3
 1004210:	80a0983a 	sll	r16,r16,r2
 1004214:	8908d83a 	srl	r4,r17,r4
 1004218:	88a4983a 	sll	r18,r17,r2
 100421c:	2420b03a 	or	r16,r4,r16
 1004220:	017f0344 	movi	r5,-1011
 1004224:	28e9c83a 	sub	r20,r5,r3
 1004228:	002b883a 	mov	r21,zero
 100422c:	0015883a 	mov	r10,zero
 1004230:	003f9b06 	br	10040a0 <__alt_data_end+0xff8040a0>
 1004234:	8984b03a 	or	r2,r17,r6
 1004238:	10002a1e 	bne	r2,zero,10042e4 <__muldf3+0x2c4>
 100423c:	0023883a 	mov	r17,zero
 1004240:	002f883a 	mov	r23,zero
 1004244:	02400084 	movi	r9,2
 1004248:	003fa706 	br	10040e8 <__alt_data_end+0xff8040e8>
 100424c:	8984b03a 	or	r2,r17,r6
 1004250:	10002026 	beq	r2,zero,10042d4 <__muldf3+0x2b4>
 1004254:	8800cc26 	beq	r17,zero,1004588 <__muldf3+0x568>
 1004258:	8809883a 	mov	r4,r17
 100425c:	d8c00215 	stw	r3,8(sp)
 1004260:	d9800315 	stw	r6,12(sp)
 1004264:	da800015 	stw	r10,0(sp)
 1004268:	dac00115 	stw	r11,4(sp)
 100426c:	1004a740 	call	1004a74 <__clzsi2>
 1004270:	d8c00217 	ldw	r3,8(sp)
 1004274:	d9800317 	ldw	r6,12(sp)
 1004278:	da800017 	ldw	r10,0(sp)
 100427c:	dac00117 	ldw	r11,4(sp)
 1004280:	1009883a 	mov	r4,r2
 1004284:	01400a04 	movi	r5,40
 1004288:	25fffe04 	addi	r23,r4,-8
 100428c:	290bc83a 	sub	r5,r5,r4
 1004290:	8dd0983a 	sll	r8,r17,r23
 1004294:	314ad83a 	srl	r5,r6,r5
 1004298:	35ee983a 	sll	r23,r6,r23
 100429c:	2a22b03a 	or	r17,r5,r8
 10042a0:	017f0344 	movi	r5,-1011
 10042a4:	290bc83a 	sub	r5,r5,r4
 10042a8:	0013883a 	mov	r9,zero
 10042ac:	003f8e06 	br	10040e8 <__alt_data_end+0xff8040e8>
 10042b0:	008000c4 	movi	r2,3
 10042b4:	50811d26 	beq	r10,r2,100472c <__muldf3+0x70c>
 10042b8:	00800044 	movi	r2,1
 10042bc:	5080e01e 	bne	r10,r2,1004640 <__muldf3+0x620>
 10042c0:	e0a6703a 	and	r19,fp,r2
 10042c4:	0009883a 	mov	r4,zero
 10042c8:	0021883a 	mov	r16,zero
 10042cc:	0025883a 	mov	r18,zero
 10042d0:	003fad06 	br	1004188 <__alt_data_end+0xff804188>
 10042d4:	0023883a 	mov	r17,zero
 10042d8:	002f883a 	mov	r23,zero
 10042dc:	02400044 	movi	r9,1
 10042e0:	003f8106 	br	10040e8 <__alt_data_end+0xff8040e8>
 10042e4:	024000c4 	movi	r9,3
 10042e8:	003f7f06 	br	10040e8 <__alt_data_end+0xff8040e8>
 10042ec:	05400104 	movi	r21,4
 10042f0:	0021883a 	mov	r16,zero
 10042f4:	0025883a 	mov	r18,zero
 10042f8:	02800044 	movi	r10,1
 10042fc:	003f6806 	br	10040a0 <__alt_data_end+0xff8040a0>
 1004300:	05400304 	movi	r21,12
 1004304:	028000c4 	movi	r10,3
 1004308:	003f6506 	br	10040a0 <__alt_data_end+0xff8040a0>
 100430c:	04000434 	movhi	r16,16
 1004310:	0027883a 	mov	r19,zero
 1004314:	843fffc4 	addi	r16,r16,-1
 1004318:	04bfffc4 	movi	r18,-1
 100431c:	0101ffc4 	movi	r4,2047
 1004320:	003f9906 	br	1004188 <__alt_data_end+0xff804188>
 1004324:	8821883a 	mov	r16,r17
 1004328:	b825883a 	mov	r18,r23
 100432c:	5839883a 	mov	fp,r11
 1004330:	4815883a 	mov	r10,r9
 1004334:	003f8e06 	br	1004170 <__alt_data_end+0xff804170>
 1004338:	8821883a 	mov	r16,r17
 100433c:	b825883a 	mov	r18,r23
 1004340:	b039883a 	mov	fp,r22
 1004344:	4815883a 	mov	r10,r9
 1004348:	003f8906 	br	1004170 <__alt_data_end+0xff804170>
 100434c:	b80cd43a 	srli	r6,r23,16
 1004350:	9006d43a 	srli	r3,r18,16
 1004354:	90bfffcc 	andi	r2,r18,65535
 1004358:	bdffffcc 	andi	r23,r23,65535
 100435c:	b891383a 	mul	r8,r23,r2
 1004360:	b8c9383a 	mul	r4,r23,r3
 1004364:	309b383a 	mul	r13,r6,r2
 1004368:	400ed43a 	srli	r7,r8,16
 100436c:	30df383a 	mul	r15,r6,r3
 1004370:	235b883a 	add	r13,r4,r13
 1004374:	69db883a 	add	r13,r13,r7
 1004378:	6900022e 	bgeu	r13,r4,1004384 <__muldf3+0x364>
 100437c:	01000074 	movhi	r4,1
 1004380:	791f883a 	add	r15,r15,r4
 1004384:	8828d43a 	srli	r20,r17,16
 1004388:	8c7fffcc 	andi	r17,r17,65535
 100438c:	888f383a 	mul	r7,r17,r2
 1004390:	88d3383a 	mul	r9,r17,r3
 1004394:	a0a5383a 	mul	r18,r20,r2
 1004398:	3816d43a 	srli	r11,r7,16
 100439c:	6814943a 	slli	r10,r13,16
 10043a0:	4ca5883a 	add	r18,r9,r18
 10043a4:	423fffcc 	andi	r8,r8,65535
 10043a8:	92e5883a 	add	r18,r18,r11
 10043ac:	6808d43a 	srli	r4,r13,16
 10043b0:	5215883a 	add	r10,r10,r8
 10043b4:	a0c7383a 	mul	r3,r20,r3
 10043b8:	9240022e 	bgeu	r18,r9,10043c4 <__muldf3+0x3a4>
 10043bc:	00800074 	movhi	r2,1
 10043c0:	1887883a 	add	r3,r3,r2
 10043c4:	802ad43a 	srli	r21,r16,16
 10043c8:	80bfffcc 	andi	r2,r16,65535
 10043cc:	b893383a 	mul	r9,r23,r2
 10043d0:	3091383a 	mul	r8,r6,r2
 10043d4:	bd6f383a 	mul	r23,r23,r21
 10043d8:	9026943a 	slli	r19,r18,16
 10043dc:	481ad43a 	srli	r13,r9,16
 10043e0:	9024d43a 	srli	r18,r18,16
 10043e4:	39ffffcc 	andi	r7,r7,65535
 10043e8:	ba11883a 	add	r8,r23,r8
 10043ec:	99e7883a 	add	r19,r19,r7
 10043f0:	4351883a 	add	r8,r8,r13
 10043f4:	1c97883a 	add	r11,r3,r18
 10043f8:	354d383a 	mul	r6,r6,r21
 10043fc:	9925883a 	add	r18,r19,r4
 1004400:	45c0022e 	bgeu	r8,r23,100440c <__muldf3+0x3ec>
 1004404:	00c00074 	movhi	r3,1
 1004408:	30cd883a 	add	r6,r6,r3
 100440c:	8889383a 	mul	r4,r17,r2
 1004410:	8d63383a 	mul	r17,r17,r21
 1004414:	a085383a 	mul	r2,r20,r2
 1004418:	200ed43a 	srli	r7,r4,16
 100441c:	401cd43a 	srli	r14,r8,16
 1004420:	401a943a 	slli	r13,r8,16
 1004424:	8885883a 	add	r2,r17,r2
 1004428:	4a3fffcc 	andi	r8,r9,65535
 100442c:	11c5883a 	add	r2,r2,r7
 1004430:	339d883a 	add	r14,r6,r14
 1004434:	6a11883a 	add	r8,r13,r8
 1004438:	a561383a 	mul	r16,r20,r21
 100443c:	1440022e 	bgeu	r2,r17,1004448 <__muldf3+0x428>
 1004440:	00c00074 	movhi	r3,1
 1004444:	80e1883a 	add	r16,r16,r3
 1004448:	1006943a 	slli	r3,r2,16
 100444c:	213fffcc 	andi	r4,r4,65535
 1004450:	93db883a 	add	r13,r18,r15
 1004454:	1909883a 	add	r4,r3,r4
 1004458:	22c7883a 	add	r3,r4,r11
 100445c:	6cd3803a 	cmpltu	r9,r13,r19
 1004460:	6a09883a 	add	r4,r13,r8
 1004464:	1a5b883a 	add	r13,r3,r9
 1004468:	2211803a 	cmpltu	r8,r4,r8
 100446c:	734d883a 	add	r6,r14,r13
 1004470:	100ed43a 	srli	r7,r2,16
 1004474:	6a53803a 	cmpltu	r9,r13,r9
 1004478:	3205883a 	add	r2,r6,r8
 100447c:	1ac7803a 	cmpltu	r3,r3,r11
 1004480:	1211803a 	cmpltu	r8,r2,r8
 1004484:	48c6b03a 	or	r3,r9,r3
 1004488:	338d803a 	cmpltu	r6,r6,r14
 100448c:	19c7883a 	add	r3,r3,r7
 1004490:	418cb03a 	or	r6,r8,r6
 1004494:	1987883a 	add	r3,r3,r6
 1004498:	2024927a 	slli	r18,r4,9
 100449c:	1c07883a 	add	r3,r3,r16
 10044a0:	1806927a 	slli	r3,r3,9
 10044a4:	1020d5fa 	srli	r16,r2,23
 10044a8:	2008d5fa 	srli	r4,r4,23
 10044ac:	9294b03a 	or	r10,r18,r10
 10044b0:	1004927a 	slli	r2,r2,9
 10044b4:	5024c03a 	cmpne	r18,r10,zero
 10044b8:	1c20b03a 	or	r16,r3,r16
 10044bc:	9108b03a 	or	r4,r18,r4
 10044c0:	80c0402c 	andhi	r3,r16,256
 10044c4:	20a4b03a 	or	r18,r4,r2
 10044c8:	18000726 	beq	r3,zero,10044e8 <__muldf3+0x4c8>
 10044cc:	9006d07a 	srli	r3,r18,1
 10044d0:	800897fa 	slli	r4,r16,31
 10044d4:	9080004c 	andi	r2,r18,1
 10044d8:	8020d07a 	srli	r16,r16,1
 10044dc:	10c4b03a 	or	r2,r2,r3
 10044e0:	1124b03a 	or	r18,r2,r4
 10044e4:	600b883a 	mov	r5,r12
 10044e8:	2900ffc4 	addi	r4,r5,1023
 10044ec:	01004b0e 	bge	zero,r4,100461c <__muldf3+0x5fc>
 10044f0:	908001cc 	andi	r2,r18,7
 10044f4:	10000726 	beq	r2,zero,1004514 <__muldf3+0x4f4>
 10044f8:	90c003cc 	andi	r3,r18,15
 10044fc:	00800104 	movi	r2,4
 1004500:	18800426 	beq	r3,r2,1004514 <__muldf3+0x4f4>
 1004504:	9087883a 	add	r3,r18,r2
 1004508:	1c85803a 	cmpltu	r2,r3,r18
 100450c:	80a1883a 	add	r16,r16,r2
 1004510:	1825883a 	mov	r18,r3
 1004514:	8080402c 	andhi	r2,r16,256
 1004518:	10000426 	beq	r2,zero,100452c <__muldf3+0x50c>
 100451c:	00bfc034 	movhi	r2,65280
 1004520:	10bfffc4 	addi	r2,r2,-1
 1004524:	29010004 	addi	r4,r5,1024
 1004528:	80a0703a 	and	r16,r16,r2
 100452c:	0081ff84 	movi	r2,2046
 1004530:	1100320e 	bge	r2,r4,10045fc <__muldf3+0x5dc>
 1004534:	b4c0004c 	andi	r19,r22,1
 1004538:	0101ffc4 	movi	r4,2047
 100453c:	0021883a 	mov	r16,zero
 1004540:	0025883a 	mov	r18,zero
 1004544:	003f1006 	br	1004188 <__alt_data_end+0xff804188>
 1004548:	8080022c 	andhi	r2,r16,8
 100454c:	10000926 	beq	r2,zero,1004574 <__muldf3+0x554>
 1004550:	8880022c 	andhi	r2,r17,8
 1004554:	1000071e 	bne	r2,zero,1004574 <__muldf3+0x554>
 1004558:	00800434 	movhi	r2,16
 100455c:	8c000234 	orhi	r16,r17,8
 1004560:	10bfffc4 	addi	r2,r2,-1
 1004564:	1827883a 	mov	r19,r3
 1004568:	80a0703a 	and	r16,r16,r2
 100456c:	b825883a 	mov	r18,r23
 1004570:	003f6a06 	br	100431c <__alt_data_end+0xff80431c>
 1004574:	00800434 	movhi	r2,16
 1004578:	84000234 	orhi	r16,r16,8
 100457c:	10bfffc4 	addi	r2,r2,-1
 1004580:	80a0703a 	and	r16,r16,r2
 1004584:	003f6506 	br	100431c <__alt_data_end+0xff80431c>
 1004588:	3009883a 	mov	r4,r6
 100458c:	d8c00215 	stw	r3,8(sp)
 1004590:	d9800315 	stw	r6,12(sp)
 1004594:	da800015 	stw	r10,0(sp)
 1004598:	dac00115 	stw	r11,4(sp)
 100459c:	1004a740 	call	1004a74 <__clzsi2>
 10045a0:	11000804 	addi	r4,r2,32
 10045a4:	014009c4 	movi	r5,39
 10045a8:	d8c00217 	ldw	r3,8(sp)
 10045ac:	d9800317 	ldw	r6,12(sp)
 10045b0:	da800017 	ldw	r10,0(sp)
 10045b4:	dac00117 	ldw	r11,4(sp)
 10045b8:	293f320e 	bge	r5,r4,1004284 <__alt_data_end+0xff804284>
 10045bc:	10bffe04 	addi	r2,r2,-8
 10045c0:	b8a2983a 	sll	r17,r23,r2
 10045c4:	002f883a 	mov	r23,zero
 10045c8:	003f3506 	br	10042a0 <__alt_data_end+0xff8042a0>
 10045cc:	d9800315 	stw	r6,12(sp)
 10045d0:	d9c00015 	stw	r7,0(sp)
 10045d4:	1004a740 	call	1004a74 <__clzsi2>
 10045d8:	10c00804 	addi	r3,r2,32
 10045dc:	010009c4 	movi	r4,39
 10045e0:	d9800317 	ldw	r6,12(sp)
 10045e4:	d9c00017 	ldw	r7,0(sp)
 10045e8:	20ff060e 	bge	r4,r3,1004204 <__alt_data_end+0xff804204>
 10045ec:	10bffe04 	addi	r2,r2,-8
 10045f0:	88a0983a 	sll	r16,r17,r2
 10045f4:	0025883a 	mov	r18,zero
 10045f8:	003f0906 	br	1004220 <__alt_data_end+0xff804220>
 10045fc:	9004d0fa 	srli	r2,r18,3
 1004600:	8024977a 	slli	r18,r16,29
 1004604:	8020927a 	slli	r16,r16,9
 1004608:	2101ffcc 	andi	r4,r4,2047
 100460c:	90a4b03a 	or	r18,r18,r2
 1004610:	8020d33a 	srli	r16,r16,12
 1004614:	b4c0004c 	andi	r19,r22,1
 1004618:	003edb06 	br	1004188 <__alt_data_end+0xff804188>
 100461c:	00ff0084 	movi	r3,-1022
 1004620:	1947c83a 	sub	r3,r3,r5
 1004624:	00800e04 	movi	r2,56
 1004628:	10c0080e 	bge	r2,r3,100464c <__muldf3+0x62c>
 100462c:	b4c0004c 	andi	r19,r22,1
 1004630:	0009883a 	mov	r4,zero
 1004634:	0021883a 	mov	r16,zero
 1004638:	0025883a 	mov	r18,zero
 100463c:	003ed206 	br	1004188 <__alt_data_end+0xff804188>
 1004640:	600b883a 	mov	r5,r12
 1004644:	e02d883a 	mov	r22,fp
 1004648:	003fa706 	br	10044e8 <__alt_data_end+0xff8044e8>
 100464c:	008007c4 	movi	r2,31
 1004650:	10c01816 	blt	r2,r3,10046b4 <__muldf3+0x694>
 1004654:	29410784 	addi	r5,r5,1054
 1004658:	8144983a 	sll	r2,r16,r5
 100465c:	90c8d83a 	srl	r4,r18,r3
 1004660:	914a983a 	sll	r5,r18,r5
 1004664:	80c6d83a 	srl	r3,r16,r3
 1004668:	2088b03a 	or	r4,r4,r2
 100466c:	2804c03a 	cmpne	r2,r5,zero
 1004670:	2084b03a 	or	r2,r4,r2
 1004674:	110001cc 	andi	r4,r2,7
 1004678:	20000726 	beq	r4,zero,1004698 <__muldf3+0x678>
 100467c:	114003cc 	andi	r5,r2,15
 1004680:	01000104 	movi	r4,4
 1004684:	29000426 	beq	r5,r4,1004698 <__muldf3+0x678>
 1004688:	11000104 	addi	r4,r2,4
 100468c:	2085803a 	cmpltu	r2,r4,r2
 1004690:	1887883a 	add	r3,r3,r2
 1004694:	2005883a 	mov	r2,r4
 1004698:	1900202c 	andhi	r4,r3,128
 100469c:	20001826 	beq	r4,zero,1004700 <__muldf3+0x6e0>
 10046a0:	b4c0004c 	andi	r19,r22,1
 10046a4:	01000044 	movi	r4,1
 10046a8:	0021883a 	mov	r16,zero
 10046ac:	0025883a 	mov	r18,zero
 10046b0:	003eb506 	br	1004188 <__alt_data_end+0xff804188>
 10046b4:	00bef884 	movi	r2,-1054
 10046b8:	1145c83a 	sub	r2,r2,r5
 10046bc:	8088d83a 	srl	r4,r16,r2
 10046c0:	00800804 	movi	r2,32
 10046c4:	18801726 	beq	r3,r2,1004724 <__muldf3+0x704>
 10046c8:	28810f84 	addi	r2,r5,1086
 10046cc:	8084983a 	sll	r2,r16,r2
 10046d0:	1484b03a 	or	r2,r2,r18
 10046d4:	1004c03a 	cmpne	r2,r2,zero
 10046d8:	1104b03a 	or	r2,r2,r4
 10046dc:	10c001cc 	andi	r3,r2,7
 10046e0:	18000b1e 	bne	r3,zero,1004710 <__muldf3+0x6f0>
 10046e4:	0021883a 	mov	r16,zero
 10046e8:	1004d0fa 	srli	r2,r2,3
 10046ec:	b4c0004c 	andi	r19,r22,1
 10046f0:	0009883a 	mov	r4,zero
 10046f4:	10e4b03a 	or	r18,r2,r3
 10046f8:	003ea306 	br	1004188 <__alt_data_end+0xff804188>
 10046fc:	0007883a 	mov	r3,zero
 1004700:	1820927a 	slli	r16,r3,9
 1004704:	1806977a 	slli	r3,r3,29
 1004708:	8020d33a 	srli	r16,r16,12
 100470c:	003ff606 	br	10046e8 <__alt_data_end+0xff8046e8>
 1004710:	110003cc 	andi	r4,r2,15
 1004714:	00c00104 	movi	r3,4
 1004718:	20fff826 	beq	r4,r3,10046fc <__alt_data_end+0xff8046fc>
 100471c:	0007883a 	mov	r3,zero
 1004720:	003fd906 	br	1004688 <__alt_data_end+0xff804688>
 1004724:	0005883a 	mov	r2,zero
 1004728:	003fe906 	br	10046d0 <__alt_data_end+0xff8046d0>
 100472c:	00800434 	movhi	r2,16
 1004730:	84000234 	orhi	r16,r16,8
 1004734:	10bfffc4 	addi	r2,r2,-1
 1004738:	e4c0004c 	andi	r19,fp,1
 100473c:	80a0703a 	and	r16,r16,r2
 1004740:	003ef606 	br	100431c <__alt_data_end+0xff80431c>

01004744 <__fixdfsi>:
 1004744:	2806d53a 	srli	r3,r5,20
 1004748:	00800434 	movhi	r2,16
 100474c:	10bfffc4 	addi	r2,r2,-1
 1004750:	18c1ffcc 	andi	r3,r3,2047
 1004754:	0180ff84 	movi	r6,1022
 1004758:	2884703a 	and	r2,r5,r2
 100475c:	280ad7fa 	srli	r5,r5,31
 1004760:	30c0130e 	bge	r6,r3,10047b0 <__fixdfsi+0x6c>
 1004764:	01810744 	movi	r6,1053
 1004768:	30c00d16 	blt	r6,r3,10047a0 <__fixdfsi+0x5c>
 100476c:	01810cc4 	movi	r6,1075
 1004770:	30cdc83a 	sub	r6,r6,r3
 1004774:	01c007c4 	movi	r7,31
 1004778:	10800434 	orhi	r2,r2,16
 100477c:	39800e0e 	bge	r7,r6,10047b8 <__fixdfsi+0x74>
 1004780:	010104c4 	movi	r4,1043
 1004784:	20c7c83a 	sub	r3,r4,r3
 1004788:	10c6d83a 	srl	r3,r2,r3
 100478c:	29403fcc 	andi	r5,r5,255
 1004790:	0145c83a 	sub	r2,zero,r5
 1004794:	1884f03a 	xor	r2,r3,r2
 1004798:	1145883a 	add	r2,r2,r5
 100479c:	f800283a 	ret
 10047a0:	00a00034 	movhi	r2,32768
 10047a4:	10bfffc4 	addi	r2,r2,-1
 10047a8:	2885883a 	add	r2,r5,r2
 10047ac:	f800283a 	ret
 10047b0:	0005883a 	mov	r2,zero
 10047b4:	f800283a 	ret
 10047b8:	18fefb44 	addi	r3,r3,-1043
 10047bc:	2188d83a 	srl	r4,r4,r6
 10047c0:	10c6983a 	sll	r3,r2,r3
 10047c4:	20c6b03a 	or	r3,r4,r3
 10047c8:	003ff006 	br	100478c <__alt_data_end+0xff80478c>

010047cc <__extendsfdf2>:
 10047cc:	200ad5fa 	srli	r5,r4,23
 10047d0:	defffd04 	addi	sp,sp,-12
 10047d4:	dc400115 	stw	r17,4(sp)
 10047d8:	29403fcc 	andi	r5,r5,255
 10047dc:	29800044 	addi	r6,r5,1
 10047e0:	04402034 	movhi	r17,128
 10047e4:	dc000015 	stw	r16,0(sp)
 10047e8:	8c7fffc4 	addi	r17,r17,-1
 10047ec:	dfc00215 	stw	ra,8(sp)
 10047f0:	31803fcc 	andi	r6,r6,255
 10047f4:	00800044 	movi	r2,1
 10047f8:	8922703a 	and	r17,r17,r4
 10047fc:	2020d7fa 	srli	r16,r4,31
 1004800:	1180110e 	bge	r2,r6,1004848 <__extendsfdf2+0x7c>
 1004804:	880ed0fa 	srli	r7,r17,3
 1004808:	8822977a 	slli	r17,r17,29
 100480c:	2940e004 	addi	r5,r5,896
 1004810:	2941ffcc 	andi	r5,r5,2047
 1004814:	280c953a 	slli	r6,r5,20
 1004818:	01400434 	movhi	r5,16
 100481c:	800697fa 	slli	r3,r16,31
 1004820:	297fffc4 	addi	r5,r5,-1
 1004824:	394a703a 	and	r5,r7,r5
 1004828:	298ab03a 	or	r5,r5,r6
 100482c:	8805883a 	mov	r2,r17
 1004830:	28c6b03a 	or	r3,r5,r3
 1004834:	dfc00217 	ldw	ra,8(sp)
 1004838:	dc400117 	ldw	r17,4(sp)
 100483c:	dc000017 	ldw	r16,0(sp)
 1004840:	dec00304 	addi	sp,sp,12
 1004844:	f800283a 	ret
 1004848:	2800111e 	bne	r5,zero,1004890 <__extendsfdf2+0xc4>
 100484c:	88001c26 	beq	r17,zero,10048c0 <__extendsfdf2+0xf4>
 1004850:	8809883a 	mov	r4,r17
 1004854:	1004a740 	call	1004a74 <__clzsi2>
 1004858:	00c00284 	movi	r3,10
 100485c:	18801b16 	blt	r3,r2,10048cc <__extendsfdf2+0x100>
 1004860:	01c002c4 	movi	r7,11
 1004864:	388fc83a 	sub	r7,r7,r2
 1004868:	10c00544 	addi	r3,r2,21
 100486c:	89ced83a 	srl	r7,r17,r7
 1004870:	88e2983a 	sll	r17,r17,r3
 1004874:	0180e244 	movi	r6,905
 1004878:	308bc83a 	sub	r5,r6,r2
 100487c:	01800434 	movhi	r6,16
 1004880:	31bfffc4 	addi	r6,r6,-1
 1004884:	398e703a 	and	r7,r7,r6
 1004888:	2941ffcc 	andi	r5,r5,2047
 100488c:	003fe006 	br	1004810 <__alt_data_end+0xff804810>
 1004890:	88000826 	beq	r17,zero,10048b4 <__extendsfdf2+0xe8>
 1004894:	880ed0fa 	srli	r7,r17,3
 1004898:	00800434 	movhi	r2,16
 100489c:	10bfffc4 	addi	r2,r2,-1
 10048a0:	39c00234 	orhi	r7,r7,8
 10048a4:	8822977a 	slli	r17,r17,29
 10048a8:	388e703a 	and	r7,r7,r2
 10048ac:	0141ffc4 	movi	r5,2047
 10048b0:	003fd706 	br	1004810 <__alt_data_end+0xff804810>
 10048b4:	0141ffc4 	movi	r5,2047
 10048b8:	000f883a 	mov	r7,zero
 10048bc:	003fd406 	br	1004810 <__alt_data_end+0xff804810>
 10048c0:	000b883a 	mov	r5,zero
 10048c4:	000f883a 	mov	r7,zero
 10048c8:	003fd106 	br	1004810 <__alt_data_end+0xff804810>
 10048cc:	11fffd44 	addi	r7,r2,-11
 10048d0:	89ce983a 	sll	r7,r17,r7
 10048d4:	0023883a 	mov	r17,zero
 10048d8:	003fe606 	br	1004874 <__alt_data_end+0xff804874>

010048dc <__truncdfsf2>:
 10048dc:	2810d53a 	srli	r8,r5,20
 10048e0:	01c00434 	movhi	r7,16
 10048e4:	39ffffc4 	addi	r7,r7,-1
 10048e8:	29ce703a 	and	r7,r5,r7
 10048ec:	380e90fa 	slli	r7,r7,3
 10048f0:	4201ffcc 	andi	r8,r8,2047
 10048f4:	200cd77a 	srli	r6,r4,29
 10048f8:	42400044 	addi	r9,r8,1
 10048fc:	4a41ffcc 	andi	r9,r9,2047
 1004900:	00800044 	movi	r2,1
 1004904:	398cb03a 	or	r6,r7,r6
 1004908:	280ad7fa 	srli	r5,r5,31
 100490c:	200e90fa 	slli	r7,r4,3
 1004910:	1240230e 	bge	r2,r9,10049a0 <__truncdfsf2+0xc4>
 1004914:	40ff2004 	addi	r3,r8,-896
 1004918:	00803f84 	movi	r2,254
 100491c:	10c01516 	blt	r2,r3,1004974 <__truncdfsf2+0x98>
 1004920:	00c02d0e 	bge	zero,r3,10049d8 <__truncdfsf2+0xfc>
 1004924:	200891ba 	slli	r4,r4,6
 1004928:	300c90fa 	slli	r6,r6,3
 100492c:	380ed77a 	srli	r7,r7,29
 1004930:	2008c03a 	cmpne	r4,r4,zero
 1004934:	310cb03a 	or	r6,r6,r4
 1004938:	31ccb03a 	or	r6,r6,r7
 100493c:	308001cc 	andi	r2,r6,7
 1004940:	10000426 	beq	r2,zero,1004954 <__truncdfsf2+0x78>
 1004944:	310003cc 	andi	r4,r6,15
 1004948:	00800104 	movi	r2,4
 100494c:	20800126 	beq	r4,r2,1004954 <__truncdfsf2+0x78>
 1004950:	31800104 	addi	r6,r6,4
 1004954:	3081002c 	andhi	r2,r6,1024
 1004958:	10002326 	beq	r2,zero,10049e8 <__truncdfsf2+0x10c>
 100495c:	18c00044 	addi	r3,r3,1
 1004960:	00803fc4 	movi	r2,255
 1004964:	18800326 	beq	r3,r2,1004974 <__truncdfsf2+0x98>
 1004968:	300c91ba 	slli	r6,r6,6
 100496c:	300cd27a 	srli	r6,r6,9
 1004970:	00000206 	br	100497c <__truncdfsf2+0xa0>
 1004974:	00ffffc4 	movi	r3,-1
 1004978:	000d883a 	mov	r6,zero
 100497c:	18c03fcc 	andi	r3,r3,255
 1004980:	180895fa 	slli	r4,r3,23
 1004984:	00c02034 	movhi	r3,128
 1004988:	280a97fa 	slli	r5,r5,31
 100498c:	18ffffc4 	addi	r3,r3,-1
 1004990:	30c6703a 	and	r3,r6,r3
 1004994:	1906b03a 	or	r3,r3,r4
 1004998:	1944b03a 	or	r2,r3,r5
 100499c:	f800283a 	ret
 10049a0:	4000071e 	bne	r8,zero,10049c0 <__truncdfsf2+0xe4>
 10049a4:	31ccb03a 	or	r6,r6,r7
 10049a8:	30000d1e 	bne	r6,zero,10049e0 <__truncdfsf2+0x104>
 10049ac:	0007883a 	mov	r3,zero
 10049b0:	00802034 	movhi	r2,128
 10049b4:	10bfffc4 	addi	r2,r2,-1
 10049b8:	308c703a 	and	r6,r6,r2
 10049bc:	003fef06 	br	100497c <__alt_data_end+0xff80497c>
 10049c0:	31c8b03a 	or	r4,r6,r7
 10049c4:	203feb26 	beq	r4,zero,1004974 <__alt_data_end+0xff804974>
 10049c8:	300c90fa 	slli	r6,r6,3
 10049cc:	00c03fc4 	movi	r3,255
 10049d0:	31808034 	orhi	r6,r6,512
 10049d4:	003fd906 	br	100493c <__alt_data_end+0xff80493c>
 10049d8:	00bffa44 	movi	r2,-23
 10049dc:	1880090e 	bge	r3,r2,1004a04 <__truncdfsf2+0x128>
 10049e0:	01800144 	movi	r6,5
 10049e4:	0007883a 	mov	r3,zero
 10049e8:	00803fc4 	movi	r2,255
 10049ec:	300cd0fa 	srli	r6,r6,3
 10049f0:	18bfef1e 	bne	r3,r2,10049b0 <__alt_data_end+0xff8049b0>
 10049f4:	303fdf26 	beq	r6,zero,1004974 <__alt_data_end+0xff804974>
 10049f8:	31801034 	orhi	r6,r6,64
 10049fc:	00ffffc4 	movi	r3,-1
 1004a00:	003feb06 	br	10049b0 <__alt_data_end+0xff8049b0>
 1004a04:	0080e784 	movi	r2,926
 1004a08:	1205c83a 	sub	r2,r2,r8
 1004a0c:	00c007c4 	movi	r3,31
 1004a10:	31802034 	orhi	r6,r6,128
 1004a14:	18800916 	blt	r3,r2,1004a3c <__truncdfsf2+0x160>
 1004a18:	423f2084 	addi	r8,r8,-894
 1004a1c:	3a06983a 	sll	r3,r7,r8
 1004a20:	3210983a 	sll	r8,r6,r8
 1004a24:	388ed83a 	srl	r7,r7,r2
 1004a28:	180cc03a 	cmpne	r6,r3,zero
 1004a2c:	418cb03a 	or	r6,r8,r6
 1004a30:	31ccb03a 	or	r6,r6,r7
 1004a34:	0007883a 	mov	r3,zero
 1004a38:	003fc006 	br	100493c <__alt_data_end+0xff80493c>
 1004a3c:	00c0df84 	movi	r3,894
 1004a40:	1a07c83a 	sub	r3,r3,r8
 1004a44:	01000804 	movi	r4,32
 1004a48:	30c6d83a 	srl	r3,r6,r3
 1004a4c:	11000726 	beq	r2,r4,1004a6c <__truncdfsf2+0x190>
 1004a50:	423f2884 	addi	r8,r8,-862
 1004a54:	3210983a 	sll	r8,r6,r8
 1004a58:	41ceb03a 	or	r7,r8,r7
 1004a5c:	380ec03a 	cmpne	r7,r7,zero
 1004a60:	38ccb03a 	or	r6,r7,r3
 1004a64:	0007883a 	mov	r3,zero
 1004a68:	003fb406 	br	100493c <__alt_data_end+0xff80493c>
 1004a6c:	0011883a 	mov	r8,zero
 1004a70:	003ff906 	br	1004a58 <__alt_data_end+0xff804a58>

01004a74 <__clzsi2>:
 1004a74:	00bfffd4 	movui	r2,65535
 1004a78:	11000b36 	bltu	r2,r4,1004aa8 <__clzsi2+0x34>
 1004a7c:	00803fc4 	movi	r2,255
 1004a80:	1100122e 	bgeu	r2,r4,1004acc <__clzsi2+0x58>
 1004a84:	00c00204 	movi	r3,8
 1004a88:	01400604 	movi	r5,24
 1004a8c:	20c8d83a 	srl	r4,r4,r3
 1004a90:	008040b4 	movhi	r2,258
 1004a94:	10a4da04 	addi	r2,r2,-27800
 1004a98:	1109883a 	add	r4,r2,r4
 1004a9c:	20800003 	ldbu	r2,0(r4)
 1004aa0:	2885c83a 	sub	r2,r5,r2
 1004aa4:	f800283a 	ret
 1004aa8:	00804034 	movhi	r2,256
 1004aac:	10bfffc4 	addi	r2,r2,-1
 1004ab0:	11000336 	bltu	r2,r4,1004ac0 <__clzsi2+0x4c>
 1004ab4:	00c00404 	movi	r3,16
 1004ab8:	180b883a 	mov	r5,r3
 1004abc:	003ff306 	br	1004a8c <__alt_data_end+0xff804a8c>
 1004ac0:	00c00604 	movi	r3,24
 1004ac4:	01400204 	movi	r5,8
 1004ac8:	003ff006 	br	1004a8c <__alt_data_end+0xff804a8c>
 1004acc:	0007883a 	mov	r3,zero
 1004ad0:	01400804 	movi	r5,32
 1004ad4:	003fed06 	br	1004a8c <__alt_data_end+0xff804a8c>

01004ad8 <udivmodsi4>:
 1004ad8:	2900182e 	bgeu	r5,r4,1004b3c <udivmodsi4+0x64>
 1004adc:	28001716 	blt	r5,zero,1004b3c <udivmodsi4+0x64>
 1004ae0:	00800804 	movi	r2,32
 1004ae4:	00c00044 	movi	r3,1
 1004ae8:	00000206 	br	1004af4 <udivmodsi4+0x1c>
 1004aec:	10001126 	beq	r2,zero,1004b34 <udivmodsi4+0x5c>
 1004af0:	28000516 	blt	r5,zero,1004b08 <udivmodsi4+0x30>
 1004af4:	294b883a 	add	r5,r5,r5
 1004af8:	10bfffc4 	addi	r2,r2,-1
 1004afc:	18c7883a 	add	r3,r3,r3
 1004b00:	293ffa36 	bltu	r5,r4,1004aec <__alt_data_end+0xff804aec>
 1004b04:	18000b26 	beq	r3,zero,1004b34 <udivmodsi4+0x5c>
 1004b08:	0005883a 	mov	r2,zero
 1004b0c:	21400236 	bltu	r4,r5,1004b18 <udivmodsi4+0x40>
 1004b10:	2149c83a 	sub	r4,r4,r5
 1004b14:	10c4b03a 	or	r2,r2,r3
 1004b18:	1806d07a 	srli	r3,r3,1
 1004b1c:	280ad07a 	srli	r5,r5,1
 1004b20:	183ffa1e 	bne	r3,zero,1004b0c <__alt_data_end+0xff804b0c>
 1004b24:	3000011e 	bne	r6,zero,1004b2c <udivmodsi4+0x54>
 1004b28:	f800283a 	ret
 1004b2c:	2005883a 	mov	r2,r4
 1004b30:	f800283a 	ret
 1004b34:	0005883a 	mov	r2,zero
 1004b38:	003ffa06 	br	1004b24 <__alt_data_end+0xff804b24>
 1004b3c:	00c00044 	movi	r3,1
 1004b40:	003ff106 	br	1004b08 <__alt_data_end+0xff804b08>

01004b44 <__divsi3>:
 1004b44:	defffe04 	addi	sp,sp,-8
 1004b48:	dfc00115 	stw	ra,4(sp)
 1004b4c:	dc000015 	stw	r16,0(sp)
 1004b50:	20000b16 	blt	r4,zero,1004b80 <__divsi3+0x3c>
 1004b54:	0021883a 	mov	r16,zero
 1004b58:	28000c16 	blt	r5,zero,1004b8c <__divsi3+0x48>
 1004b5c:	000d883a 	mov	r6,zero
 1004b60:	1004ad80 	call	1004ad8 <udivmodsi4>
 1004b64:	0407c83a 	sub	r3,zero,r16
 1004b68:	1884f03a 	xor	r2,r3,r2
 1004b6c:	1405883a 	add	r2,r2,r16
 1004b70:	dfc00117 	ldw	ra,4(sp)
 1004b74:	dc000017 	ldw	r16,0(sp)
 1004b78:	dec00204 	addi	sp,sp,8
 1004b7c:	f800283a 	ret
 1004b80:	0109c83a 	sub	r4,zero,r4
 1004b84:	04000044 	movi	r16,1
 1004b88:	283ff40e 	bge	r5,zero,1004b5c <__alt_data_end+0xff804b5c>
 1004b8c:	014bc83a 	sub	r5,zero,r5
 1004b90:	8400005c 	xori	r16,r16,1
 1004b94:	003ff106 	br	1004b5c <__alt_data_end+0xff804b5c>

01004b98 <__modsi3>:
 1004b98:	defffd04 	addi	sp,sp,-12
 1004b9c:	dfc00215 	stw	ra,8(sp)
 1004ba0:	dc400115 	stw	r17,4(sp)
 1004ba4:	dc000015 	stw	r16,0(sp)
 1004ba8:	20000c16 	blt	r4,zero,1004bdc <__modsi3+0x44>
 1004bac:	0023883a 	mov	r17,zero
 1004bb0:	0021883a 	mov	r16,zero
 1004bb4:	28000d16 	blt	r5,zero,1004bec <__modsi3+0x54>
 1004bb8:	01800044 	movi	r6,1
 1004bbc:	1004ad80 	call	1004ad8 <udivmodsi4>
 1004bc0:	1404f03a 	xor	r2,r2,r16
 1004bc4:	8885883a 	add	r2,r17,r2
 1004bc8:	dfc00217 	ldw	ra,8(sp)
 1004bcc:	dc400117 	ldw	r17,4(sp)
 1004bd0:	dc000017 	ldw	r16,0(sp)
 1004bd4:	dec00304 	addi	sp,sp,12
 1004bd8:	f800283a 	ret
 1004bdc:	0109c83a 	sub	r4,zero,r4
 1004be0:	04400044 	movi	r17,1
 1004be4:	043fffc4 	movi	r16,-1
 1004be8:	283ff30e 	bge	r5,zero,1004bb8 <__alt_data_end+0xff804bb8>
 1004bec:	014bc83a 	sub	r5,zero,r5
 1004bf0:	003ff106 	br	1004bb8 <__alt_data_end+0xff804bb8>

01004bf4 <__udivsi3>:
 1004bf4:	000d883a 	mov	r6,zero
 1004bf8:	1004ad81 	jmpi	1004ad8 <udivmodsi4>

01004bfc <__umodsi3>:
 1004bfc:	01800044 	movi	r6,1
 1004c00:	1004ad81 	jmpi	1004ad8 <udivmodsi4>

01004c04 <atof>:
 1004c04:	000b883a 	mov	r5,zero
 1004c08:	1006e541 	jmpi	1006e54 <strtod>

01004c0c <atoi>:
 1004c0c:	000b883a 	mov	r5,zero
 1004c10:	01800284 	movi	r6,10
 1004c14:	10071d41 	jmpi	10071d4 <strtol>

01004c18 <_atoi_r>:
 1004c18:	000d883a 	mov	r6,zero
 1004c1c:	01c00284 	movi	r7,10
 1004c20:	1006f741 	jmpi	1006f74 <_strtol_r>

01004c24 <atol>:
 1004c24:	000b883a 	mov	r5,zero
 1004c28:	01800284 	movi	r6,10
 1004c2c:	10071d41 	jmpi	10071d4 <strtol>

01004c30 <_atol_r>:
 1004c30:	000d883a 	mov	r6,zero
 1004c34:	01c00284 	movi	r7,10
 1004c38:	1006f741 	jmpi	1006f74 <_strtol_r>

01004c3c <__errno>:
 1004c3c:	008040b4 	movhi	r2,258
 1004c40:	10ad3804 	addi	r2,r2,-19232
 1004c44:	10800017 	ldw	r2,0(r2)
 1004c48:	f800283a 	ret

01004c4c <_printf_r>:
 1004c4c:	defffd04 	addi	sp,sp,-12
 1004c50:	dfc00015 	stw	ra,0(sp)
 1004c54:	d9800115 	stw	r6,4(sp)
 1004c58:	d9c00215 	stw	r7,8(sp)
 1004c5c:	280d883a 	mov	r6,r5
 1004c60:	21400217 	ldw	r5,8(r4)
 1004c64:	d9c00104 	addi	r7,sp,4
 1004c68:	10091880 	call	1009188 <___vfprintf_internal_r>
 1004c6c:	dfc00017 	ldw	ra,0(sp)
 1004c70:	dec00304 	addi	sp,sp,12
 1004c74:	f800283a 	ret

01004c78 <printf>:
 1004c78:	defffc04 	addi	sp,sp,-16
 1004c7c:	dfc00015 	stw	ra,0(sp)
 1004c80:	d9400115 	stw	r5,4(sp)
 1004c84:	d9800215 	stw	r6,8(sp)
 1004c88:	d9c00315 	stw	r7,12(sp)
 1004c8c:	008040b4 	movhi	r2,258
 1004c90:	10ad3804 	addi	r2,r2,-19232
 1004c94:	10800017 	ldw	r2,0(r2)
 1004c98:	200b883a 	mov	r5,r4
 1004c9c:	d9800104 	addi	r6,sp,4
 1004ca0:	11000217 	ldw	r4,8(r2)
 1004ca4:	100b1840 	call	100b184 <__vfprintf_internal>
 1004ca8:	dfc00017 	ldw	ra,0(sp)
 1004cac:	dec00404 	addi	sp,sp,16
 1004cb0:	f800283a 	ret

01004cb4 <_puts_r>:
 1004cb4:	defff604 	addi	sp,sp,-40
 1004cb8:	dc000715 	stw	r16,28(sp)
 1004cbc:	2021883a 	mov	r16,r4
 1004cc0:	2809883a 	mov	r4,r5
 1004cc4:	dc400815 	stw	r17,32(sp)
 1004cc8:	dfc00915 	stw	ra,36(sp)
 1004ccc:	2823883a 	mov	r17,r5
 1004cd0:	1004fa80 	call	1004fa8 <strlen>
 1004cd4:	00c040b4 	movhi	r3,258
 1004cd8:	18ed3804 	addi	r3,r3,-19232
 1004cdc:	18c00017 	ldw	r3,0(r3)
 1004ce0:	11000044 	addi	r4,r2,1
 1004ce4:	d8800115 	stw	r2,4(sp)
 1004ce8:	18c00217 	ldw	r3,8(r3)
 1004cec:	014040b4 	movhi	r5,258
 1004cf0:	2965bc04 	addi	r5,r5,-26896
 1004cf4:	1880030b 	ldhu	r2,12(r3)
 1004cf8:	d9400215 	stw	r5,8(sp)
 1004cfc:	d9000615 	stw	r4,24(sp)
 1004d00:	01400044 	movi	r5,1
 1004d04:	01000084 	movi	r4,2
 1004d08:	d9000515 	stw	r4,20(sp)
 1004d0c:	dc400015 	stw	r17,0(sp)
 1004d10:	d9400315 	stw	r5,12(sp)
 1004d14:	dec00415 	stw	sp,16(sp)
 1004d18:	1108000c 	andi	r4,r2,8192
 1004d1c:	2000061e 	bne	r4,zero,1004d38 <_puts_r+0x84>
 1004d20:	19401917 	ldw	r5,100(r3)
 1004d24:	0137ffc4 	movi	r4,-8193
 1004d28:	10880014 	ori	r2,r2,8192
 1004d2c:	2908703a 	and	r4,r5,r4
 1004d30:	1880030d 	sth	r2,12(r3)
 1004d34:	19001915 	stw	r4,100(r3)
 1004d38:	81400217 	ldw	r5,8(r16)
 1004d3c:	8009883a 	mov	r4,r16
 1004d40:	d9800404 	addi	r6,sp,16
 1004d44:	100d60c0 	call	100d60c <__sfvwrite_r>
 1004d48:	1000061e 	bne	r2,zero,1004d64 <_puts_r+0xb0>
 1004d4c:	00800284 	movi	r2,10
 1004d50:	dfc00917 	ldw	ra,36(sp)
 1004d54:	dc400817 	ldw	r17,32(sp)
 1004d58:	dc000717 	ldw	r16,28(sp)
 1004d5c:	dec00a04 	addi	sp,sp,40
 1004d60:	f800283a 	ret
 1004d64:	00bfffc4 	movi	r2,-1
 1004d68:	003ff906 	br	1004d50 <__alt_data_end+0xff804d50>

01004d6c <puts>:
 1004d6c:	008040b4 	movhi	r2,258
 1004d70:	10ad3804 	addi	r2,r2,-19232
 1004d74:	200b883a 	mov	r5,r4
 1004d78:	11000017 	ldw	r4,0(r2)
 1004d7c:	1004cb41 	jmpi	1004cb4 <_puts_r>

01004d80 <_sprintf_r>:
 1004d80:	deffe404 	addi	sp,sp,-112
 1004d84:	2807883a 	mov	r3,r5
 1004d88:	dfc01a15 	stw	ra,104(sp)
 1004d8c:	d9c01b15 	stw	r7,108(sp)
 1004d90:	00a00034 	movhi	r2,32768
 1004d94:	10bfffc4 	addi	r2,r2,-1
 1004d98:	02008204 	movi	r8,520
 1004d9c:	d8800215 	stw	r2,8(sp)
 1004da0:	d8800515 	stw	r2,20(sp)
 1004da4:	d80b883a 	mov	r5,sp
 1004da8:	d9c01b04 	addi	r7,sp,108
 1004dac:	00bfffc4 	movi	r2,-1
 1004db0:	d8c00015 	stw	r3,0(sp)
 1004db4:	d8c00415 	stw	r3,16(sp)
 1004db8:	da00030d 	sth	r8,12(sp)
 1004dbc:	d880038d 	sth	r2,14(sp)
 1004dc0:	10071f80 	call	10071f8 <___svfprintf_internal_r>
 1004dc4:	d8c00017 	ldw	r3,0(sp)
 1004dc8:	18000005 	stb	zero,0(r3)
 1004dcc:	dfc01a17 	ldw	ra,104(sp)
 1004dd0:	dec01c04 	addi	sp,sp,112
 1004dd4:	f800283a 	ret

01004dd8 <sprintf>:
 1004dd8:	deffe304 	addi	sp,sp,-116
 1004ddc:	2007883a 	mov	r3,r4
 1004de0:	dfc01a15 	stw	ra,104(sp)
 1004de4:	d9801b15 	stw	r6,108(sp)
 1004de8:	d9c01c15 	stw	r7,112(sp)
 1004dec:	010040b4 	movhi	r4,258
 1004df0:	212d3804 	addi	r4,r4,-19232
 1004df4:	21000017 	ldw	r4,0(r4)
 1004df8:	00a00034 	movhi	r2,32768
 1004dfc:	10bfffc4 	addi	r2,r2,-1
 1004e00:	280d883a 	mov	r6,r5
 1004e04:	02008204 	movi	r8,520
 1004e08:	d8800215 	stw	r2,8(sp)
 1004e0c:	d8800515 	stw	r2,20(sp)
 1004e10:	d80b883a 	mov	r5,sp
 1004e14:	d9c01b04 	addi	r7,sp,108
 1004e18:	00bfffc4 	movi	r2,-1
 1004e1c:	d8c00015 	stw	r3,0(sp)
 1004e20:	d8c00415 	stw	r3,16(sp)
 1004e24:	da00030d 	sth	r8,12(sp)
 1004e28:	d880038d 	sth	r2,14(sp)
 1004e2c:	10071f80 	call	10071f8 <___svfprintf_internal_r>
 1004e30:	d8c00017 	ldw	r3,0(sp)
 1004e34:	18000005 	stb	zero,0(r3)
 1004e38:	dfc01a17 	ldw	ra,104(sp)
 1004e3c:	dec01d04 	addi	sp,sp,116
 1004e40:	f800283a 	ret

01004e44 <strchr>:
 1004e44:	2ac03fcc 	andi	r11,r5,255
 1004e48:	2815883a 	mov	r10,r5
 1004e4c:	208000cc 	andi	r2,r4,3
 1004e50:	58003726 	beq	r11,zero,1004f30 <strchr+0xec>
 1004e54:	10000b26 	beq	r2,zero,1004e84 <strchr+0x40>
 1004e58:	20800003 	ldbu	r2,0(r4)
 1004e5c:	10003226 	beq	r2,zero,1004f28 <strchr+0xe4>
 1004e60:	28c03fcc 	andi	r3,r5,255
 1004e64:	5880041e 	bne	r11,r2,1004e78 <strchr+0x34>
 1004e68:	00004d06 	br	1004fa0 <strchr+0x15c>
 1004e6c:	20800003 	ldbu	r2,0(r4)
 1004e70:	10002d26 	beq	r2,zero,1004f28 <strchr+0xe4>
 1004e74:	18804a26 	beq	r3,r2,1004fa0 <strchr+0x15c>
 1004e78:	21000044 	addi	r4,r4,1
 1004e7c:	208000cc 	andi	r2,r4,3
 1004e80:	103ffa1e 	bne	r2,zero,1004e6c <__alt_data_end+0xff804e6c>
 1004e84:	29403fcc 	andi	r5,r5,255
 1004e88:	280e923a 	slli	r7,r5,8
 1004e8c:	20800017 	ldw	r2,0(r4)
 1004e90:	01bfbff4 	movhi	r6,65279
 1004e94:	394ab03a 	or	r5,r7,r5
 1004e98:	280e943a 	slli	r7,r5,16
 1004e9c:	31bfbfc4 	addi	r6,r6,-257
 1004ea0:	0090303a 	nor	r8,zero,r2
 1004ea4:	394eb03a 	or	r7,r7,r5
 1004ea8:	1187883a 	add	r3,r2,r6
 1004eac:	11c4f03a 	xor	r2,r2,r7
 1004eb0:	008a303a 	nor	r5,zero,r2
 1004eb4:	1185883a 	add	r2,r2,r6
 1004eb8:	03202074 	movhi	r12,32897
 1004ebc:	2884703a 	and	r2,r5,r2
 1004ec0:	40c6703a 	and	r3,r8,r3
 1004ec4:	63202004 	addi	r12,r12,-32640
 1004ec8:	10c4b03a 	or	r2,r2,r3
 1004ecc:	1304703a 	and	r2,r2,r12
 1004ed0:	10000c1e 	bne	r2,zero,1004f04 <strchr+0xc0>
 1004ed4:	21000104 	addi	r4,r4,4
 1004ed8:	20800017 	ldw	r2,0(r4)
 1004edc:	3886f03a 	xor	r3,r7,r2
 1004ee0:	00d2303a 	nor	r9,zero,r3
 1004ee4:	198b883a 	add	r5,r3,r6
 1004ee8:	0090303a 	nor	r8,zero,r2
 1004eec:	1187883a 	add	r3,r2,r6
 1004ef0:	494a703a 	and	r5,r9,r5
 1004ef4:	40c4703a 	and	r2,r8,r3
 1004ef8:	2884b03a 	or	r2,r5,r2
 1004efc:	1304703a 	and	r2,r2,r12
 1004f00:	103ff426 	beq	r2,zero,1004ed4 <__alt_data_end+0xff804ed4>
 1004f04:	20800003 	ldbu	r2,0(r4)
 1004f08:	10000726 	beq	r2,zero,1004f28 <strchr+0xe4>
 1004f0c:	58802426 	beq	r11,r2,1004fa0 <strchr+0x15c>
 1004f10:	50c03fcc 	andi	r3,r10,255
 1004f14:	00000106 	br	1004f1c <strchr+0xd8>
 1004f18:	18802126 	beq	r3,r2,1004fa0 <strchr+0x15c>
 1004f1c:	21000044 	addi	r4,r4,1
 1004f20:	20800003 	ldbu	r2,0(r4)
 1004f24:	103ffc1e 	bne	r2,zero,1004f18 <__alt_data_end+0xff804f18>
 1004f28:	0005883a 	mov	r2,zero
 1004f2c:	f800283a 	ret
 1004f30:	10000526 	beq	r2,zero,1004f48 <strchr+0x104>
 1004f34:	20800003 	ldbu	r2,0(r4)
 1004f38:	10001926 	beq	r2,zero,1004fa0 <strchr+0x15c>
 1004f3c:	21000044 	addi	r4,r4,1
 1004f40:	208000cc 	andi	r2,r4,3
 1004f44:	103ffb1e 	bne	r2,zero,1004f34 <__alt_data_end+0xff804f34>
 1004f48:	20800017 	ldw	r2,0(r4)
 1004f4c:	01bfbff4 	movhi	r6,65279
 1004f50:	31bfbfc4 	addi	r6,r6,-257
 1004f54:	0086303a 	nor	r3,zero,r2
 1004f58:	01602074 	movhi	r5,32897
 1004f5c:	1185883a 	add	r2,r2,r6
 1004f60:	29602004 	addi	r5,r5,-32640
 1004f64:	10c4703a 	and	r2,r2,r3
 1004f68:	1144703a 	and	r2,r2,r5
 1004f6c:	10000a1e 	bne	r2,zero,1004f98 <strchr+0x154>
 1004f70:	21000104 	addi	r4,r4,4
 1004f74:	20800017 	ldw	r2,0(r4)
 1004f78:	1187883a 	add	r3,r2,r6
 1004f7c:	0084303a 	nor	r2,zero,r2
 1004f80:	1884703a 	and	r2,r3,r2
 1004f84:	1144703a 	and	r2,r2,r5
 1004f88:	103ff926 	beq	r2,zero,1004f70 <__alt_data_end+0xff804f70>
 1004f8c:	20800003 	ldbu	r2,0(r4)
 1004f90:	10000326 	beq	r2,zero,1004fa0 <strchr+0x15c>
 1004f94:	21000044 	addi	r4,r4,1
 1004f98:	20800003 	ldbu	r2,0(r4)
 1004f9c:	103ffd1e 	bne	r2,zero,1004f94 <__alt_data_end+0xff804f94>
 1004fa0:	2005883a 	mov	r2,r4
 1004fa4:	f800283a 	ret

01004fa8 <strlen>:
 1004fa8:	208000cc 	andi	r2,r4,3
 1004fac:	10002026 	beq	r2,zero,1005030 <strlen+0x88>
 1004fb0:	20800007 	ldb	r2,0(r4)
 1004fb4:	10002026 	beq	r2,zero,1005038 <strlen+0x90>
 1004fb8:	2005883a 	mov	r2,r4
 1004fbc:	00000206 	br	1004fc8 <strlen+0x20>
 1004fc0:	10c00007 	ldb	r3,0(r2)
 1004fc4:	18001826 	beq	r3,zero,1005028 <strlen+0x80>
 1004fc8:	10800044 	addi	r2,r2,1
 1004fcc:	10c000cc 	andi	r3,r2,3
 1004fd0:	183ffb1e 	bne	r3,zero,1004fc0 <__alt_data_end+0xff804fc0>
 1004fd4:	10c00017 	ldw	r3,0(r2)
 1004fd8:	01ffbff4 	movhi	r7,65279
 1004fdc:	39ffbfc4 	addi	r7,r7,-257
 1004fe0:	00ca303a 	nor	r5,zero,r3
 1004fe4:	01a02074 	movhi	r6,32897
 1004fe8:	19c7883a 	add	r3,r3,r7
 1004fec:	31a02004 	addi	r6,r6,-32640
 1004ff0:	1946703a 	and	r3,r3,r5
 1004ff4:	1986703a 	and	r3,r3,r6
 1004ff8:	1800091e 	bne	r3,zero,1005020 <strlen+0x78>
 1004ffc:	10800104 	addi	r2,r2,4
 1005000:	10c00017 	ldw	r3,0(r2)
 1005004:	19cb883a 	add	r5,r3,r7
 1005008:	00c6303a 	nor	r3,zero,r3
 100500c:	28c6703a 	and	r3,r5,r3
 1005010:	1986703a 	and	r3,r3,r6
 1005014:	183ff926 	beq	r3,zero,1004ffc <__alt_data_end+0xff804ffc>
 1005018:	00000106 	br	1005020 <strlen+0x78>
 100501c:	10800044 	addi	r2,r2,1
 1005020:	10c00007 	ldb	r3,0(r2)
 1005024:	183ffd1e 	bne	r3,zero,100501c <__alt_data_end+0xff80501c>
 1005028:	1105c83a 	sub	r2,r2,r4
 100502c:	f800283a 	ret
 1005030:	2005883a 	mov	r2,r4
 1005034:	003fe706 	br	1004fd4 <__alt_data_end+0xff804fd4>
 1005038:	0005883a 	mov	r2,zero
 100503c:	f800283a 	ret

01005040 <strncpy>:
 1005040:	2906b03a 	or	r3,r5,r4
 1005044:	18c000cc 	andi	r3,r3,3
 1005048:	2005883a 	mov	r2,r4
 100504c:	18002c1e 	bne	r3,zero,1005100 <strncpy+0xc0>
 1005050:	010000c4 	movi	r4,3
 1005054:	21802a2e 	bgeu	r4,r6,1005100 <strncpy+0xc0>
 1005058:	033fbff4 	movhi	r12,65279
 100505c:	02e02074 	movhi	r11,32897
 1005060:	633fbfc4 	addi	r12,r12,-257
 1005064:	5ae02004 	addi	r11,r11,-32640
 1005068:	100f883a 	mov	r7,r2
 100506c:	2a000017 	ldw	r8,0(r5)
 1005070:	3815883a 	mov	r10,r7
 1005074:	0212303a 	nor	r9,zero,r8
 1005078:	4307883a 	add	r3,r8,r12
 100507c:	48c6703a 	and	r3,r9,r3
 1005080:	1ac6703a 	and	r3,r3,r11
 1005084:	1800261e 	bne	r3,zero,1005120 <strncpy+0xe0>
 1005088:	39c00104 	addi	r7,r7,4
 100508c:	52000015 	stw	r8,0(r10)
 1005090:	31bfff04 	addi	r6,r6,-4
 1005094:	3811883a 	mov	r8,r7
 1005098:	29400104 	addi	r5,r5,4
 100509c:	21bff336 	bltu	r4,r6,100506c <__alt_data_end+0xff80506c>
 10050a0:	30001e26 	beq	r6,zero,100511c <strncpy+0xdc>
 10050a4:	29c00003 	ldbu	r7,0(r5)
 10050a8:	31bfffc4 	addi	r6,r6,-1
 10050ac:	40c00044 	addi	r3,r8,1
 10050b0:	41c00005 	stb	r7,0(r8)
 10050b4:	39c03fcc 	andi	r7,r7,255
 10050b8:	39c0201c 	xori	r7,r7,128
 10050bc:	39ffe004 	addi	r7,r7,-128
 10050c0:	29400044 	addi	r5,r5,1
 10050c4:	38001026 	beq	r7,zero,1005108 <strncpy+0xc8>
 10050c8:	1811883a 	mov	r8,r3
 10050cc:	00000906 	br	10050f4 <strncpy+0xb4>
 10050d0:	29c00003 	ldbu	r7,0(r5)
 10050d4:	31bfffc4 	addi	r6,r6,-1
 10050d8:	29400044 	addi	r5,r5,1
 10050dc:	41c00005 	stb	r7,0(r8)
 10050e0:	39c03fcc 	andi	r7,r7,255
 10050e4:	39c0201c 	xori	r7,r7,128
 10050e8:	39ffe004 	addi	r7,r7,-128
 10050ec:	1811883a 	mov	r8,r3
 10050f0:	38000526 	beq	r7,zero,1005108 <strncpy+0xc8>
 10050f4:	18c00044 	addi	r3,r3,1
 10050f8:	303ff51e 	bne	r6,zero,10050d0 <__alt_data_end+0xff8050d0>
 10050fc:	f800283a 	ret
 1005100:	1011883a 	mov	r8,r2
 1005104:	003fe606 	br	10050a0 <__alt_data_end+0xff8050a0>
 1005108:	30000726 	beq	r6,zero,1005128 <strncpy+0xe8>
 100510c:	198d883a 	add	r6,r3,r6
 1005110:	18000005 	stb	zero,0(r3)
 1005114:	18c00044 	addi	r3,r3,1
 1005118:	19bffd1e 	bne	r3,r6,1005110 <__alt_data_end+0xff805110>
 100511c:	f800283a 	ret
 1005120:	3811883a 	mov	r8,r7
 1005124:	003fde06 	br	10050a0 <__alt_data_end+0xff8050a0>
 1005128:	f800283a 	ret

0100512c <critical_factorization>:
 100512c:	02c00044 	movi	r11,1
 1005130:	5811883a 	mov	r8,r11
 1005134:	0013883a 	mov	r9,zero
 1005138:	00bfffc4 	movi	r2,-1
 100513c:	2087883a 	add	r3,r4,r2
 1005140:	1a0f883a 	add	r7,r3,r8
 1005144:	4247883a 	add	r3,r8,r9
 1005148:	20d5883a 	add	r10,r4,r3
 100514c:	1940102e 	bgeu	r3,r5,1005190 <critical_factorization+0x64>
 1005150:	52800003 	ldbu	r10,0(r10)
 1005154:	39c00003 	ldbu	r7,0(r7)
 1005158:	51c0042e 	bgeu	r10,r7,100516c <critical_factorization+0x40>
 100515c:	1897c83a 	sub	r11,r3,r2
 1005160:	1813883a 	mov	r9,r3
 1005164:	02000044 	movi	r8,1
 1005168:	003ff406 	br	100513c <__alt_data_end+0xff80513c>
 100516c:	51c00526 	beq	r10,r7,1005184 <critical_factorization+0x58>
 1005170:	02c00044 	movi	r11,1
 1005174:	4805883a 	mov	r2,r9
 1005178:	5811883a 	mov	r8,r11
 100517c:	4ad3883a 	add	r9,r9,r11
 1005180:	003fee06 	br	100513c <__alt_data_end+0xff80513c>
 1005184:	42c02226 	beq	r8,r11,1005210 <critical_factorization+0xe4>
 1005188:	42000044 	addi	r8,r8,1
 100518c:	003feb06 	br	100513c <__alt_data_end+0xff80513c>
 1005190:	03000044 	movi	r12,1
 1005194:	32c00015 	stw	r11,0(r6)
 1005198:	6011883a 	mov	r8,r12
 100519c:	0013883a 	mov	r9,zero
 10051a0:	02ffffc4 	movi	r11,-1
 10051a4:	22c7883a 	add	r3,r4,r11
 10051a8:	1a0f883a 	add	r7,r3,r8
 10051ac:	4247883a 	add	r3,r8,r9
 10051b0:	20d5883a 	add	r10,r4,r3
 10051b4:	1940102e 	bgeu	r3,r5,10051f8 <critical_factorization+0xcc>
 10051b8:	52800003 	ldbu	r10,0(r10)
 10051bc:	39c00003 	ldbu	r7,0(r7)
 10051c0:	3a80042e 	bgeu	r7,r10,10051d4 <critical_factorization+0xa8>
 10051c4:	1ad9c83a 	sub	r12,r3,r11
 10051c8:	1813883a 	mov	r9,r3
 10051cc:	02000044 	movi	r8,1
 10051d0:	003ff406 	br	10051a4 <__alt_data_end+0xff8051a4>
 10051d4:	51c00526 	beq	r10,r7,10051ec <critical_factorization+0xc0>
 10051d8:	03000044 	movi	r12,1
 10051dc:	4817883a 	mov	r11,r9
 10051e0:	6011883a 	mov	r8,r12
 10051e4:	4b13883a 	add	r9,r9,r12
 10051e8:	003fee06 	br	10051a4 <__alt_data_end+0xff8051a4>
 10051ec:	43000b26 	beq	r8,r12,100521c <critical_factorization+0xf0>
 10051f0:	42000044 	addi	r8,r8,1
 10051f4:	003feb06 	br	10051a4 <__alt_data_end+0xff8051a4>
 10051f8:	5ac00044 	addi	r11,r11,1
 10051fc:	10800044 	addi	r2,r2,1
 1005200:	58800236 	bltu	r11,r2,100520c <critical_factorization+0xe0>
 1005204:	33000015 	stw	r12,0(r6)
 1005208:	5805883a 	mov	r2,r11
 100520c:	f800283a 	ret
 1005210:	1813883a 	mov	r9,r3
 1005214:	02000044 	movi	r8,1
 1005218:	003fc806 	br	100513c <__alt_data_end+0xff80513c>
 100521c:	1813883a 	mov	r9,r3
 1005220:	02000044 	movi	r8,1
